ARM GAS  C:\Users\Ivan\AppData\Local\Temp\ccLg2wuB.s 			page 1


   1              		.cpu cortex-m3
   2              		.eabi_attribute 20, 1
   3              		.eabi_attribute 21, 1
   4              		.eabi_attribute 23, 3
   5              		.eabi_attribute 24, 1
   6              		.eabi_attribute 25, 1
   7              		.eabi_attribute 26, 1
   8              		.eabi_attribute 30, 1
   9              		.eabi_attribute 34, 1
  10              		.eabi_attribute 18, 4
  11              		.file	"os.c"
  12              		.text
  13              	.Ltext0:
  14              		.cfi_sections	.debug_frame
  15              		.section	.text.OS_TriggerContextSwitch,"ax",%progbits
  16              		.align	1
  17              		.arch armv7-m
  18              		.syntax unified
  19              		.thumb
  20              		.thumb_func
  21              		.fpu softvfp
  23              	OS_TriggerContextSwitch:
  24              	.LFB11:
  25              		.file 1 "src/rtos/os.c"
   1:src/rtos/os.c **** /**************************************************************************************************
   2:src/rtos/os.c ****  *                         INCLUDE FILES
   3:src/rtos/os.c ****  **************************************************************************************************
   4:src/rtos/os.c **** #include "os.h"
   5:src/rtos/os.c **** #include "os_errors.h"
   6:src/rtos/os.c **** 
   7:src/rtos/os.c **** 
   8:src/rtos/os.c **** /**************************************************************************************************
   9:src/rtos/os.c ****  *                         PRIVATE DEFINES
  10:src/rtos/os.c ****  **************************************************************************************************
  11:src/rtos/os.c **** #define NVIC_INT_CTRL *((uint32_t volatile *)0xE000ED04)
  12:src/rtos/os.c **** #define NVIC_PENDSVSET_MASK                  0x10000000
  13:src/rtos/os.c **** 
  14:src/rtos/os.c **** #define SIZEOF_TASKIDLESTACK (256)
  15:src/rtos/os.c **** 
  16:src/rtos/os.c **** #define OS_1MILISECOND_TO_TICKS	(OS_MS_TO_TICKS(1ul))
  17:src/rtos/os.c **** #define OS_1SECOND_TO_TICKS		(1000ul * OS_1MILISECOND_TO_TICKS)
  18:src/rtos/os.c **** #define OS_1MINUTE_TO_TICKS 	(60ul * OS_1SECOND_TO_TICKS)
  19:src/rtos/os.c **** #define OS_1HOUR_TO_TICKS		(60ul * OS_1MINUTE_TO_TICKS)
  20:src/rtos/os.c **** #define OS_1DAY_TO_TICKS		(24ul * OS_1HOUR_TO_TICKS)
  21:src/rtos/os.c **** 
  22:src/rtos/os.c **** 
  23:src/rtos/os.c **** /**************************************************************************************************
  24:src/rtos/os.c ****  *                         PRIVATE DATA TYPES
  25:src/rtos/os.c ****  **************************************************************************************************
  26:src/rtos/os.c **** 
  27:src/rtos/os.c **** /**************************************************************************************************
  28:src/rtos/os.c ****  *                         PRIVATE VARIABLES
  29:src/rtos/os.c ****  **************************************************************************************************
  30:src/rtos/os.c **** uint32_t OS_tickCounter;
  31:src/rtos/os.c **** 
  32:src/rtos/os.c **** OS_TCB_S *OS_TCBList[OS_TCB_LIST_LENGTH];
  33:src/rtos/os.c **** uint32_t OS_TCBItemsInList;
ARM GAS  C:\Users\Ivan\AppData\Local\Temp\ccLg2wuB.s 			page 2


  34:src/rtos/os.c **** uint32_t OS_TCBCurrentIndex;
  35:src/rtos/os.c **** uint32_t OS_TCBNextIndex;
  36:src/rtos/os.c **** OS_TCB_S *OS_TCBCurrent;
  37:src/rtos/os.c **** OS_TCB_S *OS_TCBNext;
  38:src/rtos/os.c **** 
  39:src/rtos/os.c **** 
  40:src/rtos/os.c **** OS_TCB_S taskIdleTCB;
  41:src/rtos/os.c **** uint32_t taskIdleStack[SIZEOF_TASKIDLESTACK];
  42:src/rtos/os.c **** 
  43:src/rtos/os.c **** uint32_t OS_schedEnabled;
  44:src/rtos/os.c **** 
  45:src/rtos/os.c **** 
  46:src/rtos/os.c **** /**************************************************************************************************
  47:src/rtos/os.c ****  *                         GLOBAL VARIABLES DEFINITION
  48:src/rtos/os.c ****  **************************************************************************************************
  49:src/rtos/os.c **** 
  50:src/rtos/os.c **** /**************************************************************************************************
  51:src/rtos/os.c ****  *                         PRIVATE FUNCTIONS DECLARATION
  52:src/rtos/os.c ****  **************************************************************************************************
  53:src/rtos/os.c **** static void OS_TriggerContextSwitch(void);
  54:src/rtos/os.c **** static void OS_TaskIdle(void);
  55:src/rtos/os.c **** 
  56:src/rtos/os.c **** 
  57:src/rtos/os.c **** /**************************************************************************************************
  58:src/rtos/os.c ****  *                         PUBLIC FUNCTIONS DEFINITION
  59:src/rtos/os.c ****  **************************************************************************************************
  60:src/rtos/os.c **** void OS_TaskCreate(OS_TCB_S *taskTCB, 
  61:src/rtos/os.c ****                 void (*taskPointer)(void), 
  62:src/rtos/os.c ****                 uint32_t taskPriority,
  63:src/rtos/os.c ****                 uint8_t *taskName,
  64:src/rtos/os.c ****                 uint32_t *taskStack, 
  65:src/rtos/os.c ****                 uint32_t taskStackSize,
  66:src/rtos/os.c **** 				OS_Error_E *err) {
  67:src/rtos/os.c **** 
  68:src/rtos/os.c **** 	OS_Error_E errLocal = OS_ERROR_NONE;
  69:src/rtos/os.c **** 
  70:src/rtos/os.c ****     OS_ENTER_CRITICAL();
  71:src/rtos/os.c **** 
  72:src/rtos/os.c ****     taskTCB->sp = taskStack + taskStackSize;
  73:src/rtos/os.c **** 
  74:src/rtos/os.c ****     taskTCB->sp--;
  75:src/rtos/os.c ****     *taskTCB->sp = 0x21000000;
  76:src/rtos/os.c **** 
  77:src/rtos/os.c ****     taskTCB->sp--;
  78:src/rtos/os.c ****     *taskTCB->sp = (uint32_t)taskPointer;
  79:src/rtos/os.c **** 
  80:src/rtos/os.c ****     taskTCB->sp--;
  81:src/rtos/os.c ****     *taskTCB->sp = (uint32_t)&OS_TaskTerminate;
  82:src/rtos/os.c **** 
  83:src/rtos/os.c ****     taskTCB->sp--;
  84:src/rtos/os.c ****     *taskTCB->sp = 0x00000012;
  85:src/rtos/os.c **** 
  86:src/rtos/os.c ****     taskTCB->sp--;
  87:src/rtos/os.c ****     *taskTCB->sp = 0x00000003;
  88:src/rtos/os.c **** 
  89:src/rtos/os.c ****     taskTCB->sp--;
  90:src/rtos/os.c ****     *taskTCB->sp = 0x00000002;
ARM GAS  C:\Users\Ivan\AppData\Local\Temp\ccLg2wuB.s 			page 3


  91:src/rtos/os.c **** 
  92:src/rtos/os.c ****     taskTCB->sp--;
  93:src/rtos/os.c ****     *taskTCB->sp = 0x00000001;
  94:src/rtos/os.c **** 
  95:src/rtos/os.c ****     taskTCB->sp--;
  96:src/rtos/os.c ****     *taskTCB->sp = 0x00000000;
  97:src/rtos/os.c **** 
  98:src/rtos/os.c ****     taskTCB->sp--;
  99:src/rtos/os.c ****     *taskTCB->sp = 0x00000011;
 100:src/rtos/os.c **** 
 101:src/rtos/os.c ****     taskTCB->sp--;
 102:src/rtos/os.c ****     *taskTCB->sp = 0x00000010;
 103:src/rtos/os.c **** 
 104:src/rtos/os.c ****     taskTCB->sp--;
 105:src/rtos/os.c ****     *taskTCB->sp = 0x00000009;
 106:src/rtos/os.c **** 
 107:src/rtos/os.c ****     taskTCB->sp--;
 108:src/rtos/os.c ****     *taskTCB->sp = 0x00000008;
 109:src/rtos/os.c **** 
 110:src/rtos/os.c ****     taskTCB->sp--;
 111:src/rtos/os.c ****     *taskTCB->sp = 0x00000007;
 112:src/rtos/os.c **** 
 113:src/rtos/os.c ****     taskTCB->sp--;
 114:src/rtos/os.c ****     *taskTCB->sp = 0x00000006;
 115:src/rtos/os.c **** 
 116:src/rtos/os.c ****     taskTCB->sp--;
 117:src/rtos/os.c ****     *taskTCB->sp = 0x00000005;
 118:src/rtos/os.c **** 
 119:src/rtos/os.c ****     taskTCB->sp--;
 120:src/rtos/os.c ****     *taskTCB->sp = 0x00000004;
 121:src/rtos/os.c **** 
 122:src/rtos/os.c ****     taskTCB->taskState = OS_TASK_STATE_READY;
 123:src/rtos/os.c ****     taskTCB->taskPriority = taskPriority;
 124:src/rtos/os.c ****     taskTCB->taskTick = 0ul;
 125:src/rtos/os.c ****     taskTCB->taskName = taskName;
 126:src/rtos/os.c **** 
 127:src/rtos/os.c ****     /* if there is no room in OS_TCBList */
 128:src/rtos/os.c ****     if (OS_TCBItemsInList >= OS_TCB_LIST_LENGTH) {
 129:src/rtos/os.c ****         errLocal = OS_ERROR_TASK_NOT_CREATED;
 130:src/rtos/os.c ****     }
 131:src/rtos/os.c **** 
 132:src/rtos/os.c ****     if (errLocal == OS_ERROR_NONE) {
 133:src/rtos/os.c ****     	OS_TCBList[OS_TCBItemsInList] = taskTCB;
 134:src/rtos/os.c ****     	OS_TCBItemsInList++;
 135:src/rtos/os.c ****     }
 136:src/rtos/os.c **** 
 137:src/rtos/os.c ****     OS_EXIT_CRITICAL();
 138:src/rtos/os.c **** 
 139:src/rtos/os.c ****     if (errLocal == OS_ERROR_NONE) {
 140:src/rtos/os.c ****     	OS_Schedule();
 141:src/rtos/os.c ****     }
 142:src/rtos/os.c **** 
 143:src/rtos/os.c ****     if (err != NULL) {
 144:src/rtos/os.c ****     	*err = errLocal;
 145:src/rtos/os.c ****     }
 146:src/rtos/os.c **** }
 147:src/rtos/os.c **** 
ARM GAS  C:\Users\Ivan\AppData\Local\Temp\ccLg2wuB.s 			page 4


 148:src/rtos/os.c **** 
 149:src/rtos/os.c **** void OS_Schedule(void) {
 150:src/rtos/os.c ****     uint32_t i;
 151:src/rtos/os.c ****     uint32_t taskMaxPriorityIndex;
 152:src/rtos/os.c **** 
 153:src/rtos/os.c ****     taskMaxPriorityIndex = 0ul;
 154:src/rtos/os.c **** 
 155:src/rtos/os.c **** 	OS_ENTER_CRITICAL();
 156:src/rtos/os.c **** 
 157:src/rtos/os.c **** 	if (OS_schedEnabled == TRUE) {
 158:src/rtos/os.c **** 		/* If the current task was still running then set it to ready state */
 159:src/rtos/os.c **** 		if (OS_TCBCurrent->taskState == OS_TASK_STATE_RUNNING) {
 160:src/rtos/os.c **** 			OS_TCBCurrent->taskState = OS_TASK_STATE_READY;
 161:src/rtos/os.c **** 		}
 162:src/rtos/os.c **** 
 163:src/rtos/os.c **** 		for (i = 0ul; i < OS_TCBItemsInList; i++) {
 164:src/rtos/os.c **** 			/* choose a thread to run next based on threads priority*/
 165:src/rtos/os.c **** 			if (OS_TCBList[i]->taskState == OS_TASK_STATE_READY &&
 166:src/rtos/os.c **** 				OS_TCBList[i]->taskPriority < OS_TCBList[taskMaxPriorityIndex]->taskPriority) {
 167:src/rtos/os.c **** 				taskMaxPriorityIndex = i;
 168:src/rtos/os.c **** 			}
 169:src/rtos/os.c **** 		}
 170:src/rtos/os.c **** 
 171:src/rtos/os.c **** 		OS_TCBNextIndex = taskMaxPriorityIndex;
 172:src/rtos/os.c **** 
 173:src/rtos/os.c **** 		OS_TCBNext = OS_TCBList[OS_TCBNextIndex];
 174:src/rtos/os.c **** 		OS_TCBNext->taskState = OS_TASK_STATE_RUNNING;
 175:src/rtos/os.c **** 
 176:src/rtos/os.c **** 		OS_EXIT_CRITICAL();
 177:src/rtos/os.c **** 
 178:src/rtos/os.c **** 		OS_TriggerContextSwitch();
 179:src/rtos/os.c **** 	}
 180:src/rtos/os.c **** 
 181:src/rtos/os.c **** 	OS_EXIT_CRITICAL();
 182:src/rtos/os.c **** 
 183:src/rtos/os.c **** }
 184:src/rtos/os.c **** 
 185:src/rtos/os.c **** 
 186:src/rtos/os.c **** void OS_Init(OS_Error_E *err) {
 187:src/rtos/os.c **** 	OS_Error_E errLocal = OS_ERROR_NONE;
 188:src/rtos/os.c **** 
 189:src/rtos/os.c **** 	OS_schedEnabled = FALSE;
 190:src/rtos/os.c **** 
 191:src/rtos/os.c ****     OS_TCBItemsInList = 0ul;
 192:src/rtos/os.c ****     OS_TCBCurrentIndex = 0ul;
 193:src/rtos/os.c ****     OS_TCBNextIndex = 0ul;
 194:src/rtos/os.c **** 
 195:src/rtos/os.c ****     OS_TaskCreate(&taskIdleTCB, 
 196:src/rtos/os.c ****               &OS_TaskIdle, 
 197:src/rtos/os.c **** 			  OS_IDLE_TASK_PRIORITY,
 198:src/rtos/os.c ****               (uint8_t *)"taskIdle",
 199:src/rtos/os.c ****               taskIdleStack, 
 200:src/rtos/os.c ****               SIZEOF_TASKIDLESTACK,
 201:src/rtos/os.c **** 			  &errLocal);
 202:src/rtos/os.c **** 
 203:src/rtos/os.c ****     if (errLocal == OS_ERROR_NONE) {
 204:src/rtos/os.c ****     	OS_TCBCurrent = (OS_TCB_S *)0;
ARM GAS  C:\Users\Ivan\AppData\Local\Temp\ccLg2wuB.s 			page 5


 205:src/rtos/os.c ****     	OS_TCBNext = &taskIdleTCB;
 206:src/rtos/os.c ****     }
 207:src/rtos/os.c **** 
 208:src/rtos/os.c ****     if (err != NULL) {
 209:src/rtos/os.c ****     	*err = errLocal;
 210:src/rtos/os.c ****     }
 211:src/rtos/os.c **** }
 212:src/rtos/os.c **** 
 213:src/rtos/os.c **** 
 214:src/rtos/os.c **** void OS_EnableScheduler(OS_Error_E *err) {
 215:src/rtos/os.c **** 	OS_Error_E errLocal = OS_ERROR_NONE;
 216:src/rtos/os.c **** 
 217:src/rtos/os.c **** 	OS_ENTER_CRITICAL();
 218:src/rtos/os.c **** 	OS_schedEnabled = TRUE;
 219:src/rtos/os.c **** 	OS_EXIT_CRITICAL();
 220:src/rtos/os.c **** 
 221:src/rtos/os.c **** 	OS_Schedule();
 222:src/rtos/os.c **** 
 223:src/rtos/os.c ****     if (err != NULL) {
 224:src/rtos/os.c ****     	*err = errLocal;
 225:src/rtos/os.c ****     }
 226:src/rtos/os.c **** }
 227:src/rtos/os.c **** 
 228:src/rtos/os.c **** 
 229:src/rtos/os.c **** void OS_DisableScheduler(OS_Error_E *err) {
 230:src/rtos/os.c **** 	OS_Error_E errLocal = OS_ERROR_NONE;
 231:src/rtos/os.c **** 
 232:src/rtos/os.c **** 	OS_ENTER_CRITICAL();
 233:src/rtos/os.c **** 	OS_schedEnabled = FALSE;
 234:src/rtos/os.c **** 	OS_EXIT_CRITICAL();
 235:src/rtos/os.c **** 
 236:src/rtos/os.c ****     if (err != NULL) {
 237:src/rtos/os.c ****     	*err = errLocal;
 238:src/rtos/os.c ****     }
 239:src/rtos/os.c **** }
 240:src/rtos/os.c **** 
 241:src/rtos/os.c **** 
 242:src/rtos/os.c **** uint32_t OS_getOSTickCounter(void) {
 243:src/rtos/os.c ****     return OS_tickCounter;
 244:src/rtos/os.c **** }
 245:src/rtos/os.c **** 
 246:src/rtos/os.c **** 
 247:src/rtos/os.c **** void OS_delayTicks(uint32_t ticks) {
 248:src/rtos/os.c ****     OS_ENTER_CRITICAL();
 249:src/rtos/os.c ****     
 250:src/rtos/os.c ****     OS_TCBCurrent->taskTick = ticks;
 251:src/rtos/os.c ****     OS_TCBCurrent->taskState = OS_TASK_STATE_PENDING;
 252:src/rtos/os.c **** 
 253:src/rtos/os.c ****     OS_EXIT_CRITICAL();
 254:src/rtos/os.c **** 
 255:src/rtos/os.c ****     OS_Schedule();
 256:src/rtos/os.c **** }
 257:src/rtos/os.c **** 
 258:src/rtos/os.c **** 
 259:src/rtos/os.c **** void OS_delayTime(uint32_t days,
 260:src/rtos/os.c **** 		uint32_t hours,
 261:src/rtos/os.c **** 		uint32_t minutes,
ARM GAS  C:\Users\Ivan\AppData\Local\Temp\ccLg2wuB.s 			page 6


 262:src/rtos/os.c **** 		uint32_t seconds,
 263:src/rtos/os.c **** 		uint32_t miliseconds) {
 264:src/rtos/os.c **** 
 265:src/rtos/os.c **** 	OS_delayTicks(days * OS_1DAY_TO_TICKS +
 266:src/rtos/os.c **** 			hours * OS_1HOUR_TO_TICKS +
 267:src/rtos/os.c **** 			minutes * OS_1MINUTE_TO_TICKS +
 268:src/rtos/os.c **** 			seconds * OS_1SECOND_TO_TICKS +
 269:src/rtos/os.c **** 			miliseconds * OS_1MILISECOND_TO_TICKS);
 270:src/rtos/os.c **** }
 271:src/rtos/os.c **** 
 272:src/rtos/os.c **** 
 273:src/rtos/os.c **** void OS_TaskTerminate(void) {
 274:src/rtos/os.c **** 	OS_ENTER_CRITICAL();
 275:src/rtos/os.c **** 
 276:src/rtos/os.c **** 	OS_TCBCurrent->taskState = OS_TASK_STATE_DORMANT;
 277:src/rtos/os.c **** 
 278:src/rtos/os.c **** 	OS_EXIT_CRITICAL();
 279:src/rtos/os.c **** 
 280:src/rtos/os.c **** 	OS_Schedule();
 281:src/rtos/os.c **** }
 282:src/rtos/os.c **** 
 283:src/rtos/os.c **** 
 284:src/rtos/os.c **** void OS_TickHandler(void) {
 285:src/rtos/os.c **** 	uint32_t i;
 286:src/rtos/os.c **** 
 287:src/rtos/os.c **** 	OS_ENTER_CRITICAL();
 288:src/rtos/os.c **** 
 289:src/rtos/os.c ****     OS_tickCounter++;
 290:src/rtos/os.c **** 
 291:src/rtos/os.c ****     for(i = 0ul; i < OS_TCBItemsInList; i++) {
 292:src/rtos/os.c ****       if (OS_TCBList[i]->taskTick > 0ul) {
 293:src/rtos/os.c ****         OS_TCBList[i]->taskTick--;
 294:src/rtos/os.c **** 
 295:src/rtos/os.c ****         if (OS_TCBList[i]->taskTick == 0u) {
 296:src/rtos/os.c ****           OS_TCBList[i]->taskState = OS_TASK_STATE_READY;
 297:src/rtos/os.c ****         }
 298:src/rtos/os.c ****       }
 299:src/rtos/os.c ****     }
 300:src/rtos/os.c **** 
 301:src/rtos/os.c ****     OS_EXIT_CRITICAL();
 302:src/rtos/os.c **** 
 303:src/rtos/os.c ****     OS_Schedule();
 304:src/rtos/os.c **** }
 305:src/rtos/os.c **** 
 306:src/rtos/os.c **** 
 307:src/rtos/os.c **** void SysTick_Handler(void) {
 308:src/rtos/os.c **** 	OS_TickHandler();
 309:src/rtos/os.c **** }
 310:src/rtos/os.c **** 
 311:src/rtos/os.c **** 
 312:src/rtos/os.c **** /**************************************************************************************************
 313:src/rtos/os.c ****  *                         PRIVATE FUNCTIONS DEFINITION
 314:src/rtos/os.c ****  **************************************************************************************************
 315:src/rtos/os.c **** static void OS_TriggerContextSwitch(void) {
  26              		.loc 1 315 43 view -0
  27              		.cfi_startproc
  28              		@ args = 0, pretend = 0, frame = 0
ARM GAS  C:\Users\Ivan\AppData\Local\Temp\ccLg2wuB.s 			page 7


  29              		@ frame_needed = 0, uses_anonymous_args = 0
  30              		@ link register save eliminated.
 316:src/rtos/os.c ****     NVIC_INT_CTRL = NVIC_PENDSVSET_MASK;
  31              		.loc 1 316 5 view .LVU1
  32              		.loc 1 316 19 is_stmt 0 view .LVU2
  33 0000 4FF0E023 		mov	r3, #-536813568
  34 0004 4FF08052 		mov	r2, #268435456
  35 0008 C3F8042D 		str	r2, [r3, #3332]
 317:src/rtos/os.c **** }
  36              		.loc 1 317 1 view .LVU3
  37 000c 7047     		bx	lr
  38              		.cfi_endproc
  39              	.LFE11:
  41              		.section	.text.OS_TaskIdle,"ax",%progbits
  42              		.align	1
  43              		.syntax unified
  44              		.thumb
  45              		.thumb_func
  46              		.fpu softvfp
  48              	OS_TaskIdle:
  49              	.LFB12:
 318:src/rtos/os.c **** 
 319:src/rtos/os.c **** 
 320:src/rtos/os.c **** static void OS_TaskIdle(void) {
  50              		.loc 1 320 31 is_stmt 1 view -0
  51              		.cfi_startproc
  52              		@ Volatile: function does not return.
  53              		@ args = 0, pretend = 0, frame = 0
  54              		@ frame_needed = 0, uses_anonymous_args = 0
  55              		@ link register save eliminated.
  56              	.L3:
 321:src/rtos/os.c ****     for (;;)
  57              		.loc 1 321 5 discriminator 1 view .LVU5
 322:src/rtos/os.c ****         ;
  58              		.loc 1 322 9 discriminator 1 view .LVU6
 321:src/rtos/os.c ****     for (;;)
  59              		.loc 1 321 11 discriminator 1 view .LVU7
  60 0000 FEE7     		b	.L3
  61              		.cfi_endproc
  62              	.LFE12:
  64              		.section	.text.OS_Schedule,"ax",%progbits
  65              		.align	1
  66              		.global	OS_Schedule
  67              		.syntax unified
  68              		.thumb
  69              		.thumb_func
  70              		.fpu softvfp
  72              	OS_Schedule:
  73              	.LFB1:
 149:src/rtos/os.c ****     uint32_t i;
  74              		.loc 1 149 24 view -0
  75              		.cfi_startproc
  76              		@ args = 0, pretend = 0, frame = 0
  77              		@ frame_needed = 0, uses_anonymous_args = 0
  78 0000 08B5     		push	{r3, lr}
  79              	.LCFI0:
  80              		.cfi_def_cfa_offset 8
ARM GAS  C:\Users\Ivan\AppData\Local\Temp\ccLg2wuB.s 			page 8


  81              		.cfi_offset 3, -8
  82              		.cfi_offset 14, -4
 150:src/rtos/os.c ****     uint32_t taskMaxPriorityIndex;
  83              		.loc 1 150 5 view .LVU9
 151:src/rtos/os.c **** 
  84              		.loc 1 151 5 view .LVU10
 153:src/rtos/os.c **** 
  85              		.loc 1 153 5 view .LVU11
  86              	.LVL0:
 155:src/rtos/os.c **** 
  87              		.loc 1 155 2 view .LVU12
  88              		.syntax unified
  89              	@ 155 "src/rtos/os.c" 1
  90 0002 72B6     		CPSID I
  91              	@ 0 "" 2
 157:src/rtos/os.c **** 		/* If the current task was still running then set it to ready state */
  92              		.loc 1 157 2 view .LVU13
 157:src/rtos/os.c **** 		/* If the current task was still running then set it to ready state */
  93              		.loc 1 157 22 is_stmt 0 view .LVU14
  94              		.thumb
  95              		.syntax unified
  96 0004 184B     		ldr	r3, .L15
  97 0006 1B68     		ldr	r3, [r3]
 157:src/rtos/os.c **** 		/* If the current task was still running then set it to ready state */
  98              		.loc 1 157 5 view .LVU15
  99 0008 012B     		cmp	r3, #1
 100 000a 01D0     		beq	.L12
 101              	.LVL1:
 102              	.L5:
 181:src/rtos/os.c **** 
 103              		.loc 1 181 2 is_stmt 1 view .LVU16
 104              		.syntax unified
 105              	@ 181 "src/rtos/os.c" 1
 106 000c 62B6     		CPSIE I
 107              	@ 0 "" 2
 183:src/rtos/os.c **** 
 108              		.loc 1 183 1 is_stmt 0 view .LVU17
 109              		.thumb
 110              		.syntax unified
 111 000e 08BD     		pop	{r3, pc}
 112              	.LVL2:
 113              	.L12:
 159:src/rtos/os.c **** 			OS_TCBCurrent->taskState = OS_TASK_STATE_READY;
 114              		.loc 1 159 3 is_stmt 1 view .LVU18
 159:src/rtos/os.c **** 			OS_TCBCurrent->taskState = OS_TASK_STATE_READY;
 115              		.loc 1 159 20 is_stmt 0 view .LVU19
 116 0010 164B     		ldr	r3, .L15+4
 117 0012 1B68     		ldr	r3, [r3]
 118 0014 1A79     		ldrb	r2, [r3, #4]	@ zero_extendqisi2
 159:src/rtos/os.c **** 			OS_TCBCurrent->taskState = OS_TASK_STATE_READY;
 119              		.loc 1 159 6 view .LVU20
 120 0016 022A     		cmp	r2, #2
 121 0018 02D0     		beq	.L13
 122              	.L6:
 163:src/rtos/os.c **** 			/* choose a thread to run next based on threads priority*/
 123              		.loc 1 163 3 is_stmt 1 view .LVU21
 124              	.LVL3:
ARM GAS  C:\Users\Ivan\AppData\Local\Temp\ccLg2wuB.s 			page 9


 153:src/rtos/os.c **** 
 125              		.loc 1 153 26 is_stmt 0 view .LVU22
 126 001a 0020     		movs	r0, #0
 163:src/rtos/os.c **** 			/* choose a thread to run next based on threads priority*/
 127              		.loc 1 163 10 view .LVU23
 128 001c 0346     		mov	r3, r0
 163:src/rtos/os.c **** 			/* choose a thread to run next based on threads priority*/
 129              		.loc 1 163 3 view .LVU24
 130 001e 03E0     		b	.L7
 131              	.LVL4:
 132              	.L13:
 160:src/rtos/os.c **** 		}
 133              		.loc 1 160 4 is_stmt 1 view .LVU25
 160:src/rtos/os.c **** 		}
 134              		.loc 1 160 29 is_stmt 0 view .LVU26
 135 0020 0122     		movs	r2, #1
 136 0022 1A71     		strb	r2, [r3, #4]
 137 0024 F9E7     		b	.L6
 138              	.LVL5:
 139              	.L8:
 163:src/rtos/os.c **** 			/* choose a thread to run next based on threads priority*/
 140              		.loc 1 163 40 is_stmt 1 discriminator 2 view .LVU27
 163:src/rtos/os.c **** 			/* choose a thread to run next based on threads priority*/
 141              		.loc 1 163 41 is_stmt 0 discriminator 2 view .LVU28
 142 0026 0133     		adds	r3, r3, #1
 143              	.LVL6:
 144              	.L7:
 163:src/rtos/os.c **** 			/* choose a thread to run next based on threads priority*/
 145              		.loc 1 163 17 is_stmt 1 discriminator 1 view .LVU29
 163:src/rtos/os.c **** 			/* choose a thread to run next based on threads priority*/
 146              		.loc 1 163 19 is_stmt 0 discriminator 1 view .LVU30
 147 0028 114A     		ldr	r2, .L15+8
 148 002a 1268     		ldr	r2, [r2]
 163:src/rtos/os.c **** 			/* choose a thread to run next based on threads priority*/
 149              		.loc 1 163 3 discriminator 1 view .LVU31
 150 002c 9A42     		cmp	r2, r3
 151 002e 0ED9     		bls	.L14
 165:src/rtos/os.c **** 				OS_TCBList[i]->taskPriority < OS_TCBList[taskMaxPriorityIndex]->taskPriority) {
 152              		.loc 1 165 4 is_stmt 1 view .LVU32
 165:src/rtos/os.c **** 				OS_TCBList[i]->taskPriority < OS_TCBList[taskMaxPriorityIndex]->taskPriority) {
 153              		.loc 1 165 18 is_stmt 0 view .LVU33
 154 0030 104A     		ldr	r2, .L15+12
 155 0032 52F82320 		ldr	r2, [r2, r3, lsl #2]
 165:src/rtos/os.c **** 				OS_TCBList[i]->taskPriority < OS_TCBList[taskMaxPriorityIndex]->taskPriority) {
 156              		.loc 1 165 21 view .LVU34
 157 0036 1179     		ldrb	r1, [r2, #4]	@ zero_extendqisi2
 165:src/rtos/os.c **** 				OS_TCBList[i]->taskPriority < OS_TCBList[taskMaxPriorityIndex]->taskPriority) {
 158              		.loc 1 165 7 view .LVU35
 159 0038 0129     		cmp	r1, #1
 160 003a F4D1     		bne	.L8
 166:src/rtos/os.c **** 				taskMaxPriorityIndex = i;
 161              		.loc 1 166 18 discriminator 1 view .LVU36
 162 003c 9168     		ldr	r1, [r2, #8]
 166:src/rtos/os.c **** 				taskMaxPriorityIndex = i;
 163              		.loc 1 166 45 discriminator 1 view .LVU37
 164 003e 0D4A     		ldr	r2, .L15+12
 165 0040 52F82020 		ldr	r2, [r2, r0, lsl #2]
ARM GAS  C:\Users\Ivan\AppData\Local\Temp\ccLg2wuB.s 			page 10


 166:src/rtos/os.c **** 				taskMaxPriorityIndex = i;
 166              		.loc 1 166 67 discriminator 1 view .LVU38
 167 0044 9268     		ldr	r2, [r2, #8]
 165:src/rtos/os.c **** 				OS_TCBList[i]->taskPriority < OS_TCBList[taskMaxPriorityIndex]->taskPriority) {
 168              		.loc 1 165 56 discriminator 1 view .LVU39
 169 0046 9142     		cmp	r1, r2
 170 0048 EDD2     		bcs	.L8
 167:src/rtos/os.c **** 			}
 171              		.loc 1 167 26 view .LVU40
 172 004a 1846     		mov	r0, r3
 173              	.LVL7:
 167:src/rtos/os.c **** 			}
 174              		.loc 1 167 26 view .LVU41
 175 004c EBE7     		b	.L8
 176              	.LVL8:
 177              	.L14:
 171:src/rtos/os.c **** 
 178              		.loc 1 171 3 is_stmt 1 view .LVU42
 171:src/rtos/os.c **** 
 179              		.loc 1 171 19 is_stmt 0 view .LVU43
 180 004e 0A4B     		ldr	r3, .L15+16
 181              	.LVL9:
 171:src/rtos/os.c **** 
 182              		.loc 1 171 19 view .LVU44
 183 0050 1860     		str	r0, [r3]
 173:src/rtos/os.c **** 		OS_TCBNext->taskState = OS_TASK_STATE_RUNNING;
 184              		.loc 1 173 3 is_stmt 1 view .LVU45
 173:src/rtos/os.c **** 		OS_TCBNext->taskState = OS_TASK_STATE_RUNNING;
 185              		.loc 1 173 26 is_stmt 0 view .LVU46
 186 0052 084B     		ldr	r3, .L15+12
 187 0054 53F82030 		ldr	r3, [r3, r0, lsl #2]
 173:src/rtos/os.c **** 		OS_TCBNext->taskState = OS_TASK_STATE_RUNNING;
 188              		.loc 1 173 14 view .LVU47
 189 0058 084A     		ldr	r2, .L15+20
 190 005a 1360     		str	r3, [r2]
 174:src/rtos/os.c **** 
 191              		.loc 1 174 3 is_stmt 1 view .LVU48
 174:src/rtos/os.c **** 
 192              		.loc 1 174 25 is_stmt 0 view .LVU49
 193 005c 0222     		movs	r2, #2
 194 005e 1A71     		strb	r2, [r3, #4]
 176:src/rtos/os.c **** 
 195              		.loc 1 176 3 is_stmt 1 view .LVU50
 196              		.syntax unified
 197              	@ 176 "src/rtos/os.c" 1
 198 0060 62B6     		CPSIE I
 199              	@ 0 "" 2
 178:src/rtos/os.c **** 	}
 200              		.loc 1 178 3 view .LVU51
 201              		.thumb
 202              		.syntax unified
 203 0062 FFF7FEFF 		bl	OS_TriggerContextSwitch
 204              	.LVL10:
 178:src/rtos/os.c **** 	}
 205              		.loc 1 178 3 is_stmt 0 view .LVU52
 206 0066 D1E7     		b	.L5
 207              	.L16:
ARM GAS  C:\Users\Ivan\AppData\Local\Temp\ccLg2wuB.s 			page 11


 208              		.align	2
 209              	.L15:
 210 0068 00000000 		.word	.LANCHOR0
 211 006c 00000000 		.word	.LANCHOR1
 212 0070 00000000 		.word	.LANCHOR3
 213 0074 00000000 		.word	.LANCHOR2
 214 0078 00000000 		.word	.LANCHOR4
 215 007c 00000000 		.word	.LANCHOR5
 216              		.cfi_endproc
 217              	.LFE1:
 219              		.section	.text.OS_TaskCreate,"ax",%progbits
 220              		.align	1
 221              		.global	OS_TaskCreate
 222              		.syntax unified
 223              		.thumb
 224              		.thumb_func
 225              		.fpu softvfp
 227              	OS_TaskCreate:
 228              	.LVL11:
 229              	.LFB0:
  66:src/rtos/os.c **** 
 230              		.loc 1 66 22 is_stmt 1 view -0
 231              		.cfi_startproc
 232              		@ args = 12, pretend = 0, frame = 0
 233              		@ frame_needed = 0, uses_anonymous_args = 0
  66:src/rtos/os.c **** 
 234              		.loc 1 66 22 is_stmt 0 view .LVU54
 235 0000 F8B5     		push	{r3, r4, r5, r6, r7, lr}
 236              	.LCFI1:
 237              		.cfi_def_cfa_offset 24
 238              		.cfi_offset 3, -24
 239              		.cfi_offset 4, -20
 240              		.cfi_offset 5, -16
 241              		.cfi_offset 6, -12
 242              		.cfi_offset 7, -8
 243              		.cfi_offset 14, -4
 244 0002 089D     		ldr	r5, [sp, #32]
  68:src/rtos/os.c **** 
 245              		.loc 1 68 2 is_stmt 1 view .LVU55
 246              	.LVL12:
  70:src/rtos/os.c **** 
 247              		.loc 1 70 5 view .LVU56
 248              		.syntax unified
 249              	@ 70 "src/rtos/os.c" 1
 250 0004 72B6     		CPSID I
 251              	@ 0 "" 2
  72:src/rtos/os.c **** 
 252              		.loc 1 72 5 view .LVU57
  72:src/rtos/os.c **** 
 253              		.loc 1 72 29 is_stmt 0 view .LVU58
 254              		.thumb
 255              		.syntax unified
 256 0006 069C     		ldr	r4, [sp, #24]
 257 0008 079E     		ldr	r6, [sp, #28]
 258 000a 04EB8604 		add	r4, r4, r6, lsl #2
  72:src/rtos/os.c **** 
 259              		.loc 1 72 17 view .LVU59
ARM GAS  C:\Users\Ivan\AppData\Local\Temp\ccLg2wuB.s 			page 12


 260 000e 0460     		str	r4, [r0]
  74:src/rtos/os.c ****     *taskTCB->sp = 0x21000000;
 261              		.loc 1 74 5 is_stmt 1 view .LVU60
  74:src/rtos/os.c ****     *taskTCB->sp = 0x21000000;
 262              		.loc 1 74 16 is_stmt 0 view .LVU61
 263 0010 261F     		subs	r6, r4, #4
 264 0012 0660     		str	r6, [r0]
  75:src/rtos/os.c **** 
 265              		.loc 1 75 5 is_stmt 1 view .LVU62
  75:src/rtos/os.c **** 
 266              		.loc 1 75 18 is_stmt 0 view .LVU63
 267 0014 4FF00456 		mov	r6, #553648128
 268 0018 44F8046C 		str	r6, [r4, #-4]
  77:src/rtos/os.c ****     *taskTCB->sp = (uint32_t)taskPointer;
 269              		.loc 1 77 5 is_stmt 1 view .LVU64
  77:src/rtos/os.c ****     *taskTCB->sp = (uint32_t)taskPointer;
 270              		.loc 1 77 12 is_stmt 0 view .LVU65
 271 001c 0468     		ldr	r4, [r0]
  77:src/rtos/os.c ****     *taskTCB->sp = (uint32_t)taskPointer;
 272              		.loc 1 77 16 view .LVU66
 273 001e 261F     		subs	r6, r4, #4
 274 0020 0660     		str	r6, [r0]
  78:src/rtos/os.c **** 
 275              		.loc 1 78 5 is_stmt 1 view .LVU67
  78:src/rtos/os.c **** 
 276              		.loc 1 78 18 is_stmt 0 view .LVU68
 277 0022 44F8041C 		str	r1, [r4, #-4]
  80:src/rtos/os.c ****     *taskTCB->sp = (uint32_t)&OS_TaskTerminate;
 278              		.loc 1 80 5 is_stmt 1 view .LVU69
  80:src/rtos/os.c ****     *taskTCB->sp = (uint32_t)&OS_TaskTerminate;
 279              		.loc 1 80 12 is_stmt 0 view .LVU70
 280 0026 0168     		ldr	r1, [r0]
 281              	.LVL13:
  80:src/rtos/os.c ****     *taskTCB->sp = (uint32_t)&OS_TaskTerminate;
 282              		.loc 1 80 16 view .LVU71
 283 0028 0C1F     		subs	r4, r1, #4
 284 002a 0460     		str	r4, [r0]
 285              	.LVL14:
  81:src/rtos/os.c **** 
 286              		.loc 1 81 5 is_stmt 1 view .LVU72
  81:src/rtos/os.c **** 
 287              		.loc 1 81 20 is_stmt 0 view .LVU73
 288 002c 344C     		ldr	r4, .L24
  81:src/rtos/os.c **** 
 289              		.loc 1 81 18 view .LVU74
 290 002e 41F8044C 		str	r4, [r1, #-4]
  83:src/rtos/os.c ****     *taskTCB->sp = 0x00000012;
 291              		.loc 1 83 5 is_stmt 1 view .LVU75
  83:src/rtos/os.c ****     *taskTCB->sp = 0x00000012;
 292              		.loc 1 83 12 is_stmt 0 view .LVU76
 293 0032 0168     		ldr	r1, [r0]
  83:src/rtos/os.c ****     *taskTCB->sp = 0x00000012;
 294              		.loc 1 83 16 view .LVU77
 295 0034 0C1F     		subs	r4, r1, #4
 296 0036 0460     		str	r4, [r0]
  84:src/rtos/os.c **** 
 297              		.loc 1 84 5 is_stmt 1 view .LVU78
ARM GAS  C:\Users\Ivan\AppData\Local\Temp\ccLg2wuB.s 			page 13


  84:src/rtos/os.c **** 
 298              		.loc 1 84 18 is_stmt 0 view .LVU79
 299 0038 1224     		movs	r4, #18
 300 003a 41F8044C 		str	r4, [r1, #-4]
  86:src/rtos/os.c ****     *taskTCB->sp = 0x00000003;
 301              		.loc 1 86 5 is_stmt 1 view .LVU80
  86:src/rtos/os.c ****     *taskTCB->sp = 0x00000003;
 302              		.loc 1 86 12 is_stmt 0 view .LVU81
 303 003e 0168     		ldr	r1, [r0]
  86:src/rtos/os.c ****     *taskTCB->sp = 0x00000003;
 304              		.loc 1 86 16 view .LVU82
 305 0040 0C1F     		subs	r4, r1, #4
 306 0042 0460     		str	r4, [r0]
  87:src/rtos/os.c **** 
 307              		.loc 1 87 5 is_stmt 1 view .LVU83
  87:src/rtos/os.c **** 
 308              		.loc 1 87 18 is_stmt 0 view .LVU84
 309 0044 0324     		movs	r4, #3
 310 0046 41F8044C 		str	r4, [r1, #-4]
  89:src/rtos/os.c ****     *taskTCB->sp = 0x00000002;
 311              		.loc 1 89 5 is_stmt 1 view .LVU85
  89:src/rtos/os.c ****     *taskTCB->sp = 0x00000002;
 312              		.loc 1 89 12 is_stmt 0 view .LVU86
 313 004a 0168     		ldr	r1, [r0]
  89:src/rtos/os.c ****     *taskTCB->sp = 0x00000002;
 314              		.loc 1 89 16 view .LVU87
 315 004c 0C1F     		subs	r4, r1, #4
 316 004e 0460     		str	r4, [r0]
  90:src/rtos/os.c **** 
 317              		.loc 1 90 5 is_stmt 1 view .LVU88
  90:src/rtos/os.c **** 
 318              		.loc 1 90 18 is_stmt 0 view .LVU89
 319 0050 0224     		movs	r4, #2
 320 0052 41F8044C 		str	r4, [r1, #-4]
  92:src/rtos/os.c ****     *taskTCB->sp = 0x00000001;
 321              		.loc 1 92 5 is_stmt 1 view .LVU90
  92:src/rtos/os.c ****     *taskTCB->sp = 0x00000001;
 322              		.loc 1 92 12 is_stmt 0 view .LVU91
 323 0056 0168     		ldr	r1, [r0]
  92:src/rtos/os.c ****     *taskTCB->sp = 0x00000001;
 324              		.loc 1 92 16 view .LVU92
 325 0058 0C1F     		subs	r4, r1, #4
 326 005a 0460     		str	r4, [r0]
  93:src/rtos/os.c **** 
 327              		.loc 1 93 5 is_stmt 1 view .LVU93
  93:src/rtos/os.c **** 
 328              		.loc 1 93 18 is_stmt 0 view .LVU94
 329 005c 0124     		movs	r4, #1
 330 005e 41F8044C 		str	r4, [r1, #-4]
  95:src/rtos/os.c ****     *taskTCB->sp = 0x00000000;
 331              		.loc 1 95 5 is_stmt 1 view .LVU95
  95:src/rtos/os.c ****     *taskTCB->sp = 0x00000000;
 332              		.loc 1 95 12 is_stmt 0 view .LVU96
 333 0062 0668     		ldr	r6, [r0]
  95:src/rtos/os.c ****     *taskTCB->sp = 0x00000000;
 334              		.loc 1 95 16 view .LVU97
 335 0064 311F     		subs	r1, r6, #4
ARM GAS  C:\Users\Ivan\AppData\Local\Temp\ccLg2wuB.s 			page 14


 336 0066 0160     		str	r1, [r0]
  96:src/rtos/os.c **** 
 337              		.loc 1 96 5 is_stmt 1 view .LVU98
  96:src/rtos/os.c **** 
 338              		.loc 1 96 18 is_stmt 0 view .LVU99
 339 0068 0021     		movs	r1, #0
 340 006a 46F8041C 		str	r1, [r6, #-4]
  98:src/rtos/os.c ****     *taskTCB->sp = 0x00000011;
 341              		.loc 1 98 5 is_stmt 1 view .LVU100
  98:src/rtos/os.c ****     *taskTCB->sp = 0x00000011;
 342              		.loc 1 98 12 is_stmt 0 view .LVU101
 343 006e 0668     		ldr	r6, [r0]
  98:src/rtos/os.c ****     *taskTCB->sp = 0x00000011;
 344              		.loc 1 98 16 view .LVU102
 345 0070 371F     		subs	r7, r6, #4
 346 0072 0760     		str	r7, [r0]
  99:src/rtos/os.c **** 
 347              		.loc 1 99 5 is_stmt 1 view .LVU103
  99:src/rtos/os.c **** 
 348              		.loc 1 99 18 is_stmt 0 view .LVU104
 349 0074 1127     		movs	r7, #17
 350 0076 46F8047C 		str	r7, [r6, #-4]
 101:src/rtos/os.c ****     *taskTCB->sp = 0x00000010;
 351              		.loc 1 101 5 is_stmt 1 view .LVU105
 101:src/rtos/os.c ****     *taskTCB->sp = 0x00000010;
 352              		.loc 1 101 12 is_stmt 0 view .LVU106
 353 007a 0668     		ldr	r6, [r0]
 101:src/rtos/os.c ****     *taskTCB->sp = 0x00000010;
 354              		.loc 1 101 16 view .LVU107
 355 007c 371F     		subs	r7, r6, #4
 356 007e 0760     		str	r7, [r0]
 102:src/rtos/os.c **** 
 357              		.loc 1 102 5 is_stmt 1 view .LVU108
 102:src/rtos/os.c **** 
 358              		.loc 1 102 18 is_stmt 0 view .LVU109
 359 0080 1027     		movs	r7, #16
 360 0082 46F8047C 		str	r7, [r6, #-4]
 104:src/rtos/os.c ****     *taskTCB->sp = 0x00000009;
 361              		.loc 1 104 5 is_stmt 1 view .LVU110
 104:src/rtos/os.c ****     *taskTCB->sp = 0x00000009;
 362              		.loc 1 104 12 is_stmt 0 view .LVU111
 363 0086 0668     		ldr	r6, [r0]
 104:src/rtos/os.c ****     *taskTCB->sp = 0x00000009;
 364              		.loc 1 104 16 view .LVU112
 365 0088 371F     		subs	r7, r6, #4
 366 008a 0760     		str	r7, [r0]
 105:src/rtos/os.c **** 
 367              		.loc 1 105 5 is_stmt 1 view .LVU113
 105:src/rtos/os.c **** 
 368              		.loc 1 105 18 is_stmt 0 view .LVU114
 369 008c 0927     		movs	r7, #9
 370 008e 46F8047C 		str	r7, [r6, #-4]
 107:src/rtos/os.c ****     *taskTCB->sp = 0x00000008;
 371              		.loc 1 107 5 is_stmt 1 view .LVU115
 107:src/rtos/os.c ****     *taskTCB->sp = 0x00000008;
 372              		.loc 1 107 12 is_stmt 0 view .LVU116
 373 0092 0668     		ldr	r6, [r0]
ARM GAS  C:\Users\Ivan\AppData\Local\Temp\ccLg2wuB.s 			page 15


 107:src/rtos/os.c ****     *taskTCB->sp = 0x00000008;
 374              		.loc 1 107 16 view .LVU117
 375 0094 371F     		subs	r7, r6, #4
 376 0096 0760     		str	r7, [r0]
 108:src/rtos/os.c **** 
 377              		.loc 1 108 5 is_stmt 1 view .LVU118
 108:src/rtos/os.c **** 
 378              		.loc 1 108 18 is_stmt 0 view .LVU119
 379 0098 0827     		movs	r7, #8
 380 009a 46F8047C 		str	r7, [r6, #-4]
 110:src/rtos/os.c ****     *taskTCB->sp = 0x00000007;
 381              		.loc 1 110 5 is_stmt 1 view .LVU120
 110:src/rtos/os.c ****     *taskTCB->sp = 0x00000007;
 382              		.loc 1 110 12 is_stmt 0 view .LVU121
 383 009e 0668     		ldr	r6, [r0]
 110:src/rtos/os.c ****     *taskTCB->sp = 0x00000007;
 384              		.loc 1 110 16 view .LVU122
 385 00a0 371F     		subs	r7, r6, #4
 386 00a2 0760     		str	r7, [r0]
 111:src/rtos/os.c **** 
 387              		.loc 1 111 5 is_stmt 1 view .LVU123
 111:src/rtos/os.c **** 
 388              		.loc 1 111 18 is_stmt 0 view .LVU124
 389 00a4 0727     		movs	r7, #7
 390 00a6 46F8047C 		str	r7, [r6, #-4]
 113:src/rtos/os.c ****     *taskTCB->sp = 0x00000006;
 391              		.loc 1 113 5 is_stmt 1 view .LVU125
 113:src/rtos/os.c ****     *taskTCB->sp = 0x00000006;
 392              		.loc 1 113 12 is_stmt 0 view .LVU126
 393 00aa 0668     		ldr	r6, [r0]
 113:src/rtos/os.c ****     *taskTCB->sp = 0x00000006;
 394              		.loc 1 113 16 view .LVU127
 395 00ac 371F     		subs	r7, r6, #4
 396 00ae 0760     		str	r7, [r0]
 114:src/rtos/os.c **** 
 397              		.loc 1 114 5 is_stmt 1 view .LVU128
 114:src/rtos/os.c **** 
 398              		.loc 1 114 18 is_stmt 0 view .LVU129
 399 00b0 0627     		movs	r7, #6
 400 00b2 46F8047C 		str	r7, [r6, #-4]
 116:src/rtos/os.c ****     *taskTCB->sp = 0x00000005;
 401              		.loc 1 116 5 is_stmt 1 view .LVU130
 116:src/rtos/os.c ****     *taskTCB->sp = 0x00000005;
 402              		.loc 1 116 12 is_stmt 0 view .LVU131
 403 00b6 0668     		ldr	r6, [r0]
 116:src/rtos/os.c ****     *taskTCB->sp = 0x00000005;
 404              		.loc 1 116 16 view .LVU132
 405 00b8 371F     		subs	r7, r6, #4
 406 00ba 0760     		str	r7, [r0]
 117:src/rtos/os.c **** 
 407              		.loc 1 117 5 is_stmt 1 view .LVU133
 117:src/rtos/os.c **** 
 408              		.loc 1 117 18 is_stmt 0 view .LVU134
 409 00bc 0527     		movs	r7, #5
 410 00be 46F8047C 		str	r7, [r6, #-4]
 119:src/rtos/os.c ****     *taskTCB->sp = 0x00000004;
 411              		.loc 1 119 5 is_stmt 1 view .LVU135
ARM GAS  C:\Users\Ivan\AppData\Local\Temp\ccLg2wuB.s 			page 16


 119:src/rtos/os.c ****     *taskTCB->sp = 0x00000004;
 412              		.loc 1 119 12 is_stmt 0 view .LVU136
 413 00c2 0668     		ldr	r6, [r0]
 119:src/rtos/os.c ****     *taskTCB->sp = 0x00000004;
 414              		.loc 1 119 16 view .LVU137
 415 00c4 371F     		subs	r7, r6, #4
 416 00c6 0760     		str	r7, [r0]
 120:src/rtos/os.c **** 
 417              		.loc 1 120 5 is_stmt 1 view .LVU138
 120:src/rtos/os.c **** 
 418              		.loc 1 120 18 is_stmt 0 view .LVU139
 419 00c8 0427     		movs	r7, #4
 420 00ca 46F8047C 		str	r7, [r6, #-4]
 122:src/rtos/os.c ****     taskTCB->taskPriority = taskPriority;
 421              		.loc 1 122 5 is_stmt 1 view .LVU140
 122:src/rtos/os.c ****     taskTCB->taskPriority = taskPriority;
 422              		.loc 1 122 24 is_stmt 0 view .LVU141
 423 00ce 0471     		strb	r4, [r0, #4]
 123:src/rtos/os.c ****     taskTCB->taskTick = 0ul;
 424              		.loc 1 123 5 is_stmt 1 view .LVU142
 123:src/rtos/os.c ****     taskTCB->taskTick = 0ul;
 425              		.loc 1 123 27 is_stmt 0 view .LVU143
 426 00d0 8260     		str	r2, [r0, #8]
 124:src/rtos/os.c ****     taskTCB->taskName = taskName;
 427              		.loc 1 124 5 is_stmt 1 view .LVU144
 124:src/rtos/os.c ****     taskTCB->taskName = taskName;
 428              		.loc 1 124 23 is_stmt 0 view .LVU145
 429 00d2 C160     		str	r1, [r0, #12]
 125:src/rtos/os.c **** 
 430              		.loc 1 125 5 is_stmt 1 view .LVU146
 125:src/rtos/os.c **** 
 431              		.loc 1 125 23 is_stmt 0 view .LVU147
 432 00d4 0361     		str	r3, [r0, #16]
 128:src/rtos/os.c ****         errLocal = OS_ERROR_TASK_NOT_CREATED;
 433              		.loc 1 128 5 is_stmt 1 view .LVU148
 128:src/rtos/os.c ****         errLocal = OS_ERROR_TASK_NOT_CREATED;
 434              		.loc 1 128 27 is_stmt 0 view .LVU149
 435 00d6 0B4B     		ldr	r3, .L24+4
 436              	.LVL15:
 128:src/rtos/os.c ****         errLocal = OS_ERROR_TASK_NOT_CREATED;
 437              		.loc 1 128 27 view .LVU150
 438 00d8 1B68     		ldr	r3, [r3]
 128:src/rtos/os.c ****         errLocal = OS_ERROR_TASK_NOT_CREATED;
 439              		.loc 1 128 8 view .LVU151
 440 00da 3F2B     		cmp	r3, #63
 441 00dc 0BD8     		bhi	.L21
 132:src/rtos/os.c ****     	OS_TCBList[OS_TCBItemsInList] = taskTCB;
 442              		.loc 1 132 5 is_stmt 1 view .LVU152
 133:src/rtos/os.c ****     	OS_TCBItemsInList++;
 443              		.loc 1 133 6 view .LVU153
 133:src/rtos/os.c ****     	OS_TCBItemsInList++;
 444              		.loc 1 133 36 is_stmt 0 view .LVU154
 445 00de 0A4A     		ldr	r2, .L24+8
 446              	.LVL16:
 133:src/rtos/os.c ****     	OS_TCBItemsInList++;
 447              		.loc 1 133 36 view .LVU155
 448 00e0 42F82300 		str	r0, [r2, r3, lsl #2]
ARM GAS  C:\Users\Ivan\AppData\Local\Temp\ccLg2wuB.s 			page 17


 449              	.LVL17:
 134:src/rtos/os.c ****     }
 450              		.loc 1 134 6 is_stmt 1 view .LVU156
 134:src/rtos/os.c ****     }
 451              		.loc 1 134 23 is_stmt 0 view .LVU157
 452 00e4 2344     		add	r3, r3, r4
 453 00e6 074A     		ldr	r2, .L24+4
 454 00e8 1360     		str	r3, [r2]
  68:src/rtos/os.c **** 
 455              		.loc 1 68 13 view .LVU158
 456 00ea 0C46     		mov	r4, r1
 457              	.L18:
 458              	.LVL18:
 137:src/rtos/os.c **** 
 459              		.loc 1 137 5 is_stmt 1 view .LVU159
 460              		.syntax unified
 461              	@ 137 "src/rtos/os.c" 1
 462 00ec 62B6     		CPSIE I
 463              	@ 0 "" 2
 139:src/rtos/os.c ****     	OS_Schedule();
 464              		.loc 1 139 5 view .LVU160
 139:src/rtos/os.c ****     	OS_Schedule();
 465              		.loc 1 139 8 is_stmt 0 view .LVU161
 466              		.thumb
 467              		.syntax unified
 468 00ee 24B1     		cbz	r4, .L23
 469              	.LVL19:
 470              	.L19:
 143:src/rtos/os.c ****     	*err = errLocal;
 471              		.loc 1 143 5 is_stmt 1 view .LVU162
 143:src/rtos/os.c ****     	*err = errLocal;
 472              		.loc 1 143 8 is_stmt 0 view .LVU163
 473 00f0 05B1     		cbz	r5, .L17
 144:src/rtos/os.c ****     }
 474              		.loc 1 144 6 is_stmt 1 view .LVU164
 144:src/rtos/os.c ****     }
 475              		.loc 1 144 11 is_stmt 0 view .LVU165
 476 00f2 2C70     		strb	r4, [r5]
 477              	.L17:
 146:src/rtos/os.c **** 
 478              		.loc 1 146 1 view .LVU166
 479 00f4 F8BD     		pop	{r3, r4, r5, r6, r7, pc}
 480              	.LVL20:
 481              	.L21:
 129:src/rtos/os.c ****     }
 482              		.loc 1 129 18 view .LVU167
 483 00f6 0324     		movs	r4, #3
 484 00f8 F8E7     		b	.L18
 485              	.LVL21:
 486              	.L23:
 140:src/rtos/os.c ****     }
 487              		.loc 1 140 6 is_stmt 1 view .LVU168
 488 00fa FFF7FEFF 		bl	OS_Schedule
 489              	.LVL22:
 140:src/rtos/os.c ****     }
 490              		.loc 1 140 6 is_stmt 0 view .LVU169
 491 00fe F7E7     		b	.L19
ARM GAS  C:\Users\Ivan\AppData\Local\Temp\ccLg2wuB.s 			page 18


 492              	.L25:
 493              		.align	2
 494              	.L24:
 495 0100 00000000 		.word	OS_TaskTerminate
 496 0104 00000000 		.word	.LANCHOR3
 497 0108 00000000 		.word	.LANCHOR2
 498              		.cfi_endproc
 499              	.LFE0:
 501              		.section	.text.OS_TaskTerminate,"ax",%progbits
 502              		.align	1
 503              		.global	OS_TaskTerminate
 504              		.syntax unified
 505              		.thumb
 506              		.thumb_func
 507              		.fpu softvfp
 509              	OS_TaskTerminate:
 510              	.LFB8:
 273:src/rtos/os.c **** 	OS_ENTER_CRITICAL();
 511              		.loc 1 273 29 is_stmt 1 view -0
 512              		.cfi_startproc
 513              		@ args = 0, pretend = 0, frame = 0
 514              		@ frame_needed = 0, uses_anonymous_args = 0
 515 0000 08B5     		push	{r3, lr}
 516              	.LCFI2:
 517              		.cfi_def_cfa_offset 8
 518              		.cfi_offset 3, -8
 519              		.cfi_offset 14, -4
 274:src/rtos/os.c **** 
 520              		.loc 1 274 2 view .LVU171
 521              		.syntax unified
 522              	@ 274 "src/rtos/os.c" 1
 523 0002 72B6     		CPSID I
 524              	@ 0 "" 2
 276:src/rtos/os.c **** 
 525              		.loc 1 276 2 view .LVU172
 276:src/rtos/os.c **** 
 526              		.loc 1 276 15 is_stmt 0 view .LVU173
 527              		.thumb
 528              		.syntax unified
 529 0004 034B     		ldr	r3, .L28
 530 0006 1B68     		ldr	r3, [r3]
 276:src/rtos/os.c **** 
 531              		.loc 1 276 27 view .LVU174
 532 0008 0022     		movs	r2, #0
 533 000a 1A71     		strb	r2, [r3, #4]
 278:src/rtos/os.c **** 
 534              		.loc 1 278 2 is_stmt 1 view .LVU175
 535              		.syntax unified
 536              	@ 278 "src/rtos/os.c" 1
 537 000c 62B6     		CPSIE I
 538              	@ 0 "" 2
 280:src/rtos/os.c **** }
 539              		.loc 1 280 2 view .LVU176
 540              		.thumb
 541              		.syntax unified
 542 000e FFF7FEFF 		bl	OS_Schedule
 543              	.LVL23:
ARM GAS  C:\Users\Ivan\AppData\Local\Temp\ccLg2wuB.s 			page 19


 281:src/rtos/os.c **** 
 544              		.loc 1 281 1 is_stmt 0 view .LVU177
 545 0012 08BD     		pop	{r3, pc}
 546              	.L29:
 547              		.align	2
 548              	.L28:
 549 0014 00000000 		.word	.LANCHOR1
 550              		.cfi_endproc
 551              	.LFE8:
 553              		.section	.rodata.OS_Init.str1.4,"aMS",%progbits,1
 554              		.align	2
 555              	.LC0:
 556 0000 7461736B 		.ascii	"taskIdle\000"
 556      49646C65 
 556      00
 557              		.section	.text.OS_Init,"ax",%progbits
 558              		.align	1
 559              		.global	OS_Init
 560              		.syntax unified
 561              		.thumb
 562              		.thumb_func
 563              		.fpu softvfp
 565              	OS_Init:
 566              	.LVL24:
 567              	.LFB2:
 186:src/rtos/os.c **** 	OS_Error_E errLocal = OS_ERROR_NONE;
 568              		.loc 1 186 31 is_stmt 1 view -0
 569              		.cfi_startproc
 570              		@ args = 0, pretend = 0, frame = 8
 571              		@ frame_needed = 0, uses_anonymous_args = 0
 186:src/rtos/os.c **** 	OS_Error_E errLocal = OS_ERROR_NONE;
 572              		.loc 1 186 31 is_stmt 0 view .LVU179
 573 0000 10B5     		push	{r4, lr}
 574              	.LCFI3:
 575              		.cfi_def_cfa_offset 8
 576              		.cfi_offset 4, -8
 577              		.cfi_offset 14, -4
 578 0002 86B0     		sub	sp, sp, #24
 579              	.LCFI4:
 580              		.cfi_def_cfa_offset 32
 581 0004 0446     		mov	r4, r0
 187:src/rtos/os.c **** 
 582              		.loc 1 187 2 is_stmt 1 view .LVU180
 187:src/rtos/os.c **** 
 583              		.loc 1 187 13 is_stmt 0 view .LVU181
 584 0006 0023     		movs	r3, #0
 585 0008 8DF81730 		strb	r3, [sp, #23]
 189:src/rtos/os.c **** 
 586              		.loc 1 189 2 is_stmt 1 view .LVU182
 189:src/rtos/os.c **** 
 587              		.loc 1 189 18 is_stmt 0 view .LVU183
 588 000c 114A     		ldr	r2, .L34
 589 000e 1360     		str	r3, [r2]
 191:src/rtos/os.c ****     OS_TCBCurrentIndex = 0ul;
 590              		.loc 1 191 5 is_stmt 1 view .LVU184
 191:src/rtos/os.c ****     OS_TCBCurrentIndex = 0ul;
 591              		.loc 1 191 23 is_stmt 0 view .LVU185
ARM GAS  C:\Users\Ivan\AppData\Local\Temp\ccLg2wuB.s 			page 20


 592 0010 114A     		ldr	r2, .L34+4
 593 0012 1360     		str	r3, [r2]
 192:src/rtos/os.c ****     OS_TCBNextIndex = 0ul;
 594              		.loc 1 192 5 is_stmt 1 view .LVU186
 192:src/rtos/os.c ****     OS_TCBNextIndex = 0ul;
 595              		.loc 1 192 24 is_stmt 0 view .LVU187
 596 0014 114A     		ldr	r2, .L34+8
 597 0016 1360     		str	r3, [r2]
 193:src/rtos/os.c **** 
 598              		.loc 1 193 5 is_stmt 1 view .LVU188
 193:src/rtos/os.c **** 
 599              		.loc 1 193 21 is_stmt 0 view .LVU189
 600 0018 114A     		ldr	r2, .L34+12
 601 001a 1360     		str	r3, [r2]
 195:src/rtos/os.c ****               &OS_TaskIdle, 
 602              		.loc 1 195 5 is_stmt 1 view .LVU190
 603 001c 0DF11703 		add	r3, sp, #23
 604 0020 0293     		str	r3, [sp, #8]
 605 0022 4FF48073 		mov	r3, #256
 606 0026 0193     		str	r3, [sp, #4]
 607 0028 0E4B     		ldr	r3, .L34+16
 608 002a 0093     		str	r3, [sp]
 609 002c 0E4B     		ldr	r3, .L34+20
 610 002e 3F22     		movs	r2, #63
 611 0030 0E49     		ldr	r1, .L34+24
 612 0032 0F48     		ldr	r0, .L34+28
 613              	.LVL25:
 195:src/rtos/os.c ****               &OS_TaskIdle, 
 614              		.loc 1 195 5 is_stmt 0 view .LVU191
 615 0034 FFF7FEFF 		bl	OS_TaskCreate
 616              	.LVL26:
 203:src/rtos/os.c ****     	OS_TCBCurrent = (OS_TCB_S *)0;
 617              		.loc 1 203 5 is_stmt 1 view .LVU192
 203:src/rtos/os.c ****     	OS_TCBCurrent = (OS_TCB_S *)0;
 618              		.loc 1 203 18 is_stmt 0 view .LVU193
 619 0038 9DF81730 		ldrb	r3, [sp, #23]	@ zero_extendqisi2
 203:src/rtos/os.c ****     	OS_TCBCurrent = (OS_TCB_S *)0;
 620              		.loc 1 203 8 view .LVU194
 621 003c 2BB9     		cbnz	r3, .L31
 204:src/rtos/os.c ****     	OS_TCBNext = &taskIdleTCB;
 622              		.loc 1 204 6 is_stmt 1 view .LVU195
 204:src/rtos/os.c ****     	OS_TCBNext = &taskIdleTCB;
 623              		.loc 1 204 20 is_stmt 0 view .LVU196
 624 003e 0D4A     		ldr	r2, .L34+32
 625 0040 0021     		movs	r1, #0
 626 0042 1160     		str	r1, [r2]
 205:src/rtos/os.c ****     }
 627              		.loc 1 205 6 is_stmt 1 view .LVU197
 205:src/rtos/os.c ****     }
 628              		.loc 1 205 17 is_stmt 0 view .LVU198
 629 0044 0C4A     		ldr	r2, .L34+36
 630 0046 0A49     		ldr	r1, .L34+28
 631 0048 1160     		str	r1, [r2]
 632              	.L31:
 208:src/rtos/os.c ****     	*err = errLocal;
 633              		.loc 1 208 5 is_stmt 1 view .LVU199
 208:src/rtos/os.c ****     	*err = errLocal;
ARM GAS  C:\Users\Ivan\AppData\Local\Temp\ccLg2wuB.s 			page 21


 634              		.loc 1 208 8 is_stmt 0 view .LVU200
 635 004a 04B1     		cbz	r4, .L30
 209:src/rtos/os.c ****     }
 636              		.loc 1 209 6 is_stmt 1 view .LVU201
 209:src/rtos/os.c ****     }
 637              		.loc 1 209 11 is_stmt 0 view .LVU202
 638 004c 2370     		strb	r3, [r4]
 639              	.L30:
 211:src/rtos/os.c **** 
 640              		.loc 1 211 1 view .LVU203
 641 004e 06B0     		add	sp, sp, #24
 642              	.LCFI5:
 643              		.cfi_def_cfa_offset 8
 644              		@ sp needed
 645 0050 10BD     		pop	{r4, pc}
 646              	.LVL27:
 647              	.L35:
 211:src/rtos/os.c **** 
 648              		.loc 1 211 1 view .LVU204
 649 0052 00BF     		.align	2
 650              	.L34:
 651 0054 00000000 		.word	.LANCHOR0
 652 0058 00000000 		.word	.LANCHOR3
 653 005c 00000000 		.word	.LANCHOR6
 654 0060 00000000 		.word	.LANCHOR4
 655 0064 00000000 		.word	.LANCHOR8
 656 0068 00000000 		.word	.LC0
 657 006c 00000000 		.word	OS_TaskIdle
 658 0070 00000000 		.word	.LANCHOR7
 659 0074 00000000 		.word	.LANCHOR1
 660 0078 00000000 		.word	.LANCHOR5
 661              		.cfi_endproc
 662              	.LFE2:
 664              		.section	.text.OS_EnableScheduler,"ax",%progbits
 665              		.align	1
 666              		.global	OS_EnableScheduler
 667              		.syntax unified
 668              		.thumb
 669              		.thumb_func
 670              		.fpu softvfp
 672              	OS_EnableScheduler:
 673              	.LVL28:
 674              	.LFB3:
 214:src/rtos/os.c **** 	OS_Error_E errLocal = OS_ERROR_NONE;
 675              		.loc 1 214 42 is_stmt 1 view -0
 676              		.cfi_startproc
 677              		@ args = 0, pretend = 0, frame = 0
 678              		@ frame_needed = 0, uses_anonymous_args = 0
 214:src/rtos/os.c **** 	OS_Error_E errLocal = OS_ERROR_NONE;
 679              		.loc 1 214 42 is_stmt 0 view .LVU206
 680 0000 10B5     		push	{r4, lr}
 681              	.LCFI6:
 682              		.cfi_def_cfa_offset 8
 683              		.cfi_offset 4, -8
 684              		.cfi_offset 14, -4
 685 0002 0446     		mov	r4, r0
 215:src/rtos/os.c **** 
ARM GAS  C:\Users\Ivan\AppData\Local\Temp\ccLg2wuB.s 			page 22


 686              		.loc 1 215 2 is_stmt 1 view .LVU207
 687              	.LVL29:
 217:src/rtos/os.c **** 	OS_schedEnabled = TRUE;
 688              		.loc 1 217 2 view .LVU208
 689              		.syntax unified
 690              	@ 217 "src/rtos/os.c" 1
 691 0004 72B6     		CPSID I
 692              	@ 0 "" 2
 218:src/rtos/os.c **** 	OS_EXIT_CRITICAL();
 693              		.loc 1 218 2 view .LVU209
 218:src/rtos/os.c **** 	OS_EXIT_CRITICAL();
 694              		.loc 1 218 18 is_stmt 0 view .LVU210
 695              		.thumb
 696              		.syntax unified
 697 0006 054B     		ldr	r3, .L39
 698 0008 0122     		movs	r2, #1
 699 000a 1A60     		str	r2, [r3]
 219:src/rtos/os.c **** 
 700              		.loc 1 219 2 is_stmt 1 view .LVU211
 701              		.syntax unified
 702              	@ 219 "src/rtos/os.c" 1
 703 000c 62B6     		CPSIE I
 704              	@ 0 "" 2
 221:src/rtos/os.c **** 
 705              		.loc 1 221 2 view .LVU212
 706              		.thumb
 707              		.syntax unified
 708 000e FFF7FEFF 		bl	OS_Schedule
 709              	.LVL30:
 223:src/rtos/os.c ****     	*err = errLocal;
 710              		.loc 1 223 5 view .LVU213
 223:src/rtos/os.c ****     	*err = errLocal;
 711              		.loc 1 223 8 is_stmt 0 view .LVU214
 712 0012 0CB1     		cbz	r4, .L36
 224:src/rtos/os.c ****     }
 713              		.loc 1 224 6 is_stmt 1 view .LVU215
 224:src/rtos/os.c ****     }
 714              		.loc 1 224 11 is_stmt 0 view .LVU216
 715 0014 0023     		movs	r3, #0
 716 0016 2370     		strb	r3, [r4]
 717              	.L36:
 226:src/rtos/os.c **** 
 718              		.loc 1 226 1 view .LVU217
 719 0018 10BD     		pop	{r4, pc}
 720              	.LVL31:
 721              	.L40:
 226:src/rtos/os.c **** 
 722              		.loc 1 226 1 view .LVU218
 723 001a 00BF     		.align	2
 724              	.L39:
 725 001c 00000000 		.word	.LANCHOR0
 726              		.cfi_endproc
 727              	.LFE3:
 729              		.section	.text.OS_DisableScheduler,"ax",%progbits
 730              		.align	1
 731              		.global	OS_DisableScheduler
 732              		.syntax unified
ARM GAS  C:\Users\Ivan\AppData\Local\Temp\ccLg2wuB.s 			page 23


 733              		.thumb
 734              		.thumb_func
 735              		.fpu softvfp
 737              	OS_DisableScheduler:
 738              	.LVL32:
 739              	.LFB4:
 229:src/rtos/os.c **** 	OS_Error_E errLocal = OS_ERROR_NONE;
 740              		.loc 1 229 43 is_stmt 1 view -0
 741              		.cfi_startproc
 742              		@ args = 0, pretend = 0, frame = 0
 743              		@ frame_needed = 0, uses_anonymous_args = 0
 744              		@ link register save eliminated.
 230:src/rtos/os.c **** 
 745              		.loc 1 230 2 view .LVU220
 232:src/rtos/os.c **** 	OS_schedEnabled = FALSE;
 746              		.loc 1 232 2 view .LVU221
 747              		.syntax unified
 748              	@ 232 "src/rtos/os.c" 1
 749 0000 72B6     		CPSID I
 750              	@ 0 "" 2
 233:src/rtos/os.c **** 	OS_EXIT_CRITICAL();
 751              		.loc 1 233 2 view .LVU222
 233:src/rtos/os.c **** 	OS_EXIT_CRITICAL();
 752              		.loc 1 233 18 is_stmt 0 view .LVU223
 753              		.thumb
 754              		.syntax unified
 755 0002 034B     		ldr	r3, .L43
 756 0004 0022     		movs	r2, #0
 757 0006 1A60     		str	r2, [r3]
 234:src/rtos/os.c **** 
 758              		.loc 1 234 2 is_stmt 1 view .LVU224
 759              		.syntax unified
 760              	@ 234 "src/rtos/os.c" 1
 761 0008 62B6     		CPSIE I
 762              	@ 0 "" 2
 236:src/rtos/os.c ****     	*err = errLocal;
 763              		.loc 1 236 5 view .LVU225
 236:src/rtos/os.c ****     	*err = errLocal;
 764              		.loc 1 236 8 is_stmt 0 view .LVU226
 765              		.thumb
 766              		.syntax unified
 767 000a 00B1     		cbz	r0, .L41
 237:src/rtos/os.c ****     }
 768              		.loc 1 237 6 is_stmt 1 view .LVU227
 237:src/rtos/os.c ****     }
 769              		.loc 1 237 11 is_stmt 0 view .LVU228
 770 000c 0270     		strb	r2, [r0]
 771              	.L41:
 239:src/rtos/os.c **** 
 772              		.loc 1 239 1 view .LVU229
 773 000e 7047     		bx	lr
 774              	.L44:
 775              		.align	2
 776              	.L43:
 777 0010 00000000 		.word	.LANCHOR0
 778              		.cfi_endproc
 779              	.LFE4:
ARM GAS  C:\Users\Ivan\AppData\Local\Temp\ccLg2wuB.s 			page 24


 781              		.section	.text.OS_getOSTickCounter,"ax",%progbits
 782              		.align	1
 783              		.global	OS_getOSTickCounter
 784              		.syntax unified
 785              		.thumb
 786              		.thumb_func
 787              		.fpu softvfp
 789              	OS_getOSTickCounter:
 790              	.LFB5:
 242:src/rtos/os.c ****     return OS_tickCounter;
 791              		.loc 1 242 36 is_stmt 1 view -0
 792              		.cfi_startproc
 793              		@ args = 0, pretend = 0, frame = 0
 794              		@ frame_needed = 0, uses_anonymous_args = 0
 795              		@ link register save eliminated.
 243:src/rtos/os.c **** }
 796              		.loc 1 243 5 view .LVU231
 244:src/rtos/os.c **** 
 797              		.loc 1 244 1 is_stmt 0 view .LVU232
 798 0000 014B     		ldr	r3, .L46
 799 0002 1868     		ldr	r0, [r3]
 800 0004 7047     		bx	lr
 801              	.L47:
 802 0006 00BF     		.align	2
 803              	.L46:
 804 0008 00000000 		.word	.LANCHOR9
 805              		.cfi_endproc
 806              	.LFE5:
 808              		.section	.text.OS_delayTicks,"ax",%progbits
 809              		.align	1
 810              		.global	OS_delayTicks
 811              		.syntax unified
 812              		.thumb
 813              		.thumb_func
 814              		.fpu softvfp
 816              	OS_delayTicks:
 817              	.LVL33:
 818              	.LFB6:
 247:src/rtos/os.c ****     OS_ENTER_CRITICAL();
 819              		.loc 1 247 36 is_stmt 1 view -0
 820              		.cfi_startproc
 821              		@ args = 0, pretend = 0, frame = 0
 822              		@ frame_needed = 0, uses_anonymous_args = 0
 247:src/rtos/os.c ****     OS_ENTER_CRITICAL();
 823              		.loc 1 247 36 is_stmt 0 view .LVU234
 824 0000 08B5     		push	{r3, lr}
 825              	.LCFI7:
 826              		.cfi_def_cfa_offset 8
 827              		.cfi_offset 3, -8
 828              		.cfi_offset 14, -4
 248:src/rtos/os.c ****     
 829              		.loc 1 248 5 is_stmt 1 view .LVU235
 830              		.syntax unified
 831              	@ 248 "src/rtos/os.c" 1
 832 0002 72B6     		CPSID I
 833              	@ 0 "" 2
 250:src/rtos/os.c ****     OS_TCBCurrent->taskState = OS_TASK_STATE_PENDING;
ARM GAS  C:\Users\Ivan\AppData\Local\Temp\ccLg2wuB.s 			page 25


 834              		.loc 1 250 5 view .LVU236
 250:src/rtos/os.c ****     OS_TCBCurrent->taskState = OS_TASK_STATE_PENDING;
 835              		.loc 1 250 18 is_stmt 0 view .LVU237
 836              		.thumb
 837              		.syntax unified
 838 0004 044B     		ldr	r3, .L50
 839 0006 1B68     		ldr	r3, [r3]
 250:src/rtos/os.c ****     OS_TCBCurrent->taskState = OS_TASK_STATE_PENDING;
 840              		.loc 1 250 29 view .LVU238
 841 0008 D860     		str	r0, [r3, #12]
 251:src/rtos/os.c **** 
 842              		.loc 1 251 5 is_stmt 1 view .LVU239
 251:src/rtos/os.c **** 
 843              		.loc 1 251 30 is_stmt 0 view .LVU240
 844 000a 0322     		movs	r2, #3
 845 000c 1A71     		strb	r2, [r3, #4]
 253:src/rtos/os.c **** 
 846              		.loc 1 253 5 is_stmt 1 view .LVU241
 847              		.syntax unified
 848              	@ 253 "src/rtos/os.c" 1
 849 000e 62B6     		CPSIE I
 850              	@ 0 "" 2
 255:src/rtos/os.c **** }
 851              		.loc 1 255 5 view .LVU242
 852              		.thumb
 853              		.syntax unified
 854 0010 FFF7FEFF 		bl	OS_Schedule
 855              	.LVL34:
 256:src/rtos/os.c **** 
 856              		.loc 1 256 1 is_stmt 0 view .LVU243
 857 0014 08BD     		pop	{r3, pc}
 858              	.L51:
 859 0016 00BF     		.align	2
 860              	.L50:
 861 0018 00000000 		.word	.LANCHOR1
 862              		.cfi_endproc
 863              	.LFE6:
 865              		.section	.text.OS_delayTime,"ax",%progbits
 866              		.align	1
 867              		.global	OS_delayTime
 868              		.syntax unified
 869              		.thumb
 870              		.thumb_func
 871              		.fpu softvfp
 873              	OS_delayTime:
 874              	.LVL35:
 875              	.LFB7:
 263:src/rtos/os.c **** 
 876              		.loc 1 263 25 is_stmt 1 view -0
 877              		.cfi_startproc
 878              		@ args = 4, pretend = 0, frame = 0
 879              		@ frame_needed = 0, uses_anonymous_args = 0
 263:src/rtos/os.c **** 
 880              		.loc 1 263 25 is_stmt 0 view .LVU245
 881 0000 10B5     		push	{r4, lr}
 882              	.LCFI8:
 883              		.cfi_def_cfa_offset 8
ARM GAS  C:\Users\Ivan\AppData\Local\Temp\ccLg2wuB.s 			page 26


 884              		.cfi_offset 4, -8
 885              		.cfi_offset 14, -4
 265:src/rtos/os.c **** 			hours * OS_1HOUR_TO_TICKS +
 886              		.loc 1 265 2 is_stmt 1 view .LVU246
 266:src/rtos/os.c **** 			minutes * OS_1MINUTE_TO_TICKS +
 887              		.loc 1 266 10 is_stmt 0 view .LVU247
 888 0002 0A4C     		ldr	r4, .L54
 889 0004 04FB01F1 		mul	r1, r4, r1
 890              	.LVL36:
 265:src/rtos/os.c **** 			hours * OS_1HOUR_TO_TICKS +
 891              		.loc 1 265 40 view .LVU248
 892 0008 094C     		ldr	r4, .L54+4
 893 000a 04FB0011 		mla	r1, r4, r0, r1
 267:src/rtos/os.c **** 			seconds * OS_1SECOND_TO_TICKS +
 894              		.loc 1 267 12 view .LVU249
 895 000e 4EF66020 		movw	r0, #60000
 896              	.LVL37:
 267:src/rtos/os.c **** 			seconds * OS_1SECOND_TO_TICKS +
 897              		.loc 1 267 12 view .LVU250
 898 0012 00FB02F2 		mul	r2, r0, r2
 899              	.LVL38:
 267:src/rtos/os.c **** 			seconds * OS_1SECOND_TO_TICKS +
 900              		.loc 1 267 34 view .LVU251
 901 0016 4FF47A70 		mov	r0, #1000
 902 001a 00FB0322 		mla	r2, r0, r3, r2
 903 001e 0A44     		add	r2, r2, r1
 265:src/rtos/os.c **** 			hours * OS_1HOUR_TO_TICKS +
 904              		.loc 1 265 2 view .LVU252
 905 0020 0298     		ldr	r0, [sp, #8]
 906 0022 1044     		add	r0, r0, r2
 907 0024 FFF7FEFF 		bl	OS_delayTicks
 908              	.LVL39:
 270:src/rtos/os.c **** 
 909              		.loc 1 270 1 view .LVU253
 910 0028 10BD     		pop	{r4, pc}
 911              	.LVL40:
 912              	.L55:
 270:src/rtos/os.c **** 
 913              		.loc 1 270 1 view .LVU254
 914 002a 00BF     		.align	2
 915              	.L54:
 916 002c 80EE3600 		.word	3600000
 917 0030 005C2605 		.word	86400000
 918              		.cfi_endproc
 919              	.LFE7:
 921              		.section	.text.OS_TickHandler,"ax",%progbits
 922              		.align	1
 923              		.global	OS_TickHandler
 924              		.syntax unified
 925              		.thumb
 926              		.thumb_func
 927              		.fpu softvfp
 929              	OS_TickHandler:
 930              	.LFB9:
 284:src/rtos/os.c **** 	uint32_t i;
 931              		.loc 1 284 27 is_stmt 1 view -0
 932              		.cfi_startproc
ARM GAS  C:\Users\Ivan\AppData\Local\Temp\ccLg2wuB.s 			page 27


 933              		@ args = 0, pretend = 0, frame = 0
 934              		@ frame_needed = 0, uses_anonymous_args = 0
 935 0000 08B5     		push	{r3, lr}
 936              	.LCFI9:
 937              		.cfi_def_cfa_offset 8
 938              		.cfi_offset 3, -8
 939              		.cfi_offset 14, -4
 285:src/rtos/os.c **** 
 940              		.loc 1 285 2 view .LVU256
 287:src/rtos/os.c **** 
 941              		.loc 1 287 2 view .LVU257
 942              		.syntax unified
 943              	@ 287 "src/rtos/os.c" 1
 944 0002 72B6     		CPSID I
 945              	@ 0 "" 2
 289:src/rtos/os.c **** 
 946              		.loc 1 289 5 view .LVU258
 289:src/rtos/os.c **** 
 947              		.loc 1 289 19 is_stmt 0 view .LVU259
 948              		.thumb
 949              		.syntax unified
 950 0004 0F4A     		ldr	r2, .L62
 951 0006 1368     		ldr	r3, [r2]
 952 0008 0133     		adds	r3, r3, #1
 953 000a 1360     		str	r3, [r2]
 291:src/rtos/os.c ****       if (OS_TCBList[i]->taskTick > 0ul) {
 954              		.loc 1 291 5 is_stmt 1 view .LVU260
 955              	.LVL41:
 291:src/rtos/os.c ****       if (OS_TCBList[i]->taskTick > 0ul) {
 956              		.loc 1 291 11 is_stmt 0 view .LVU261
 957 000c 0023     		movs	r3, #0
 291:src/rtos/os.c ****       if (OS_TCBList[i]->taskTick > 0ul) {
 958              		.loc 1 291 5 view .LVU262
 959 000e 00E0     		b	.L57
 960              	.LVL42:
 961              	.L58:
 291:src/rtos/os.c ****       if (OS_TCBList[i]->taskTick > 0ul) {
 962              		.loc 1 291 41 is_stmt 1 discriminator 2 view .LVU263
 291:src/rtos/os.c ****       if (OS_TCBList[i]->taskTick > 0ul) {
 963              		.loc 1 291 42 is_stmt 0 discriminator 2 view .LVU264
 964 0010 0133     		adds	r3, r3, #1
 965              	.LVL43:
 966              	.L57:
 291:src/rtos/os.c ****       if (OS_TCBList[i]->taskTick > 0ul) {
 967              		.loc 1 291 18 is_stmt 1 discriminator 1 view .LVU265
 291:src/rtos/os.c ****       if (OS_TCBList[i]->taskTick > 0ul) {
 968              		.loc 1 291 20 is_stmt 0 discriminator 1 view .LVU266
 969 0012 0D4A     		ldr	r2, .L62+4
 970 0014 1268     		ldr	r2, [r2]
 291:src/rtos/os.c ****       if (OS_TCBList[i]->taskTick > 0ul) {
 971              		.loc 1 291 5 discriminator 1 view .LVU267
 972 0016 9A42     		cmp	r2, r3
 973 0018 10D9     		bls	.L61
 292:src/rtos/os.c ****         OS_TCBList[i]->taskTick--;
 974              		.loc 1 292 7 is_stmt 1 view .LVU268
 292:src/rtos/os.c ****         OS_TCBList[i]->taskTick--;
 975              		.loc 1 292 21 is_stmt 0 view .LVU269
ARM GAS  C:\Users\Ivan\AppData\Local\Temp\ccLg2wuB.s 			page 28


 976 001a 0C4A     		ldr	r2, .L62+8
 977 001c 52F82310 		ldr	r1, [r2, r3, lsl #2]
 292:src/rtos/os.c ****         OS_TCBList[i]->taskTick--;
 978              		.loc 1 292 24 view .LVU270
 979 0020 CA68     		ldr	r2, [r1, #12]
 292:src/rtos/os.c ****         OS_TCBList[i]->taskTick--;
 980              		.loc 1 292 10 view .LVU271
 981 0022 002A     		cmp	r2, #0
 982 0024 F4D0     		beq	.L58
 293:src/rtos/os.c **** 
 983              		.loc 1 293 9 is_stmt 1 view .LVU272
 293:src/rtos/os.c **** 
 984              		.loc 1 293 32 is_stmt 0 view .LVU273
 985 0026 013A     		subs	r2, r2, #1
 986 0028 CA60     		str	r2, [r1, #12]
 295:src/rtos/os.c ****           OS_TCBList[i]->taskState = OS_TASK_STATE_READY;
 987              		.loc 1 295 9 is_stmt 1 view .LVU274
 295:src/rtos/os.c ****           OS_TCBList[i]->taskState = OS_TASK_STATE_READY;
 988              		.loc 1 295 23 is_stmt 0 view .LVU275
 989 002a 084A     		ldr	r2, .L62+8
 990 002c 52F82320 		ldr	r2, [r2, r3, lsl #2]
 295:src/rtos/os.c ****           OS_TCBList[i]->taskState = OS_TASK_STATE_READY;
 991              		.loc 1 295 26 view .LVU276
 992 0030 D168     		ldr	r1, [r2, #12]
 295:src/rtos/os.c ****           OS_TCBList[i]->taskState = OS_TASK_STATE_READY;
 993              		.loc 1 295 12 view .LVU277
 994 0032 0029     		cmp	r1, #0
 995 0034 ECD1     		bne	.L58
 296:src/rtos/os.c ****         }
 996              		.loc 1 296 11 is_stmt 1 view .LVU278
 296:src/rtos/os.c ****         }
 997              		.loc 1 296 36 is_stmt 0 view .LVU279
 998 0036 0121     		movs	r1, #1
 999 0038 1171     		strb	r1, [r2, #4]
 1000 003a E9E7     		b	.L58
 1001              	.L61:
 301:src/rtos/os.c **** 
 1002              		.loc 1 301 5 is_stmt 1 view .LVU280
 1003              		.syntax unified
 1004              	@ 301 "src/rtos/os.c" 1
 1005 003c 62B6     		CPSIE I
 1006              	@ 0 "" 2
 303:src/rtos/os.c **** }
 1007              		.loc 1 303 5 view .LVU281
 1008              		.thumb
 1009              		.syntax unified
 1010 003e FFF7FEFF 		bl	OS_Schedule
 1011              	.LVL44:
 304:src/rtos/os.c **** 
 1012              		.loc 1 304 1 is_stmt 0 view .LVU282
 1013 0042 08BD     		pop	{r3, pc}
 1014              	.L63:
 1015              		.align	2
 1016              	.L62:
 1017 0044 00000000 		.word	.LANCHOR9
 1018 0048 00000000 		.word	.LANCHOR3
 1019 004c 00000000 		.word	.LANCHOR2
ARM GAS  C:\Users\Ivan\AppData\Local\Temp\ccLg2wuB.s 			page 29


 1020              		.cfi_endproc
 1021              	.LFE9:
 1023              		.section	.text.SysTick_Handler,"ax",%progbits
 1024              		.align	1
 1025              		.global	SysTick_Handler
 1026              		.syntax unified
 1027              		.thumb
 1028              		.thumb_func
 1029              		.fpu softvfp
 1031              	SysTick_Handler:
 1032              	.LFB10:
 307:src/rtos/os.c **** 	OS_TickHandler();
 1033              		.loc 1 307 28 is_stmt 1 view -0
 1034              		.cfi_startproc
 1035              		@ args = 0, pretend = 0, frame = 0
 1036              		@ frame_needed = 0, uses_anonymous_args = 0
 1037 0000 08B5     		push	{r3, lr}
 1038              	.LCFI10:
 1039              		.cfi_def_cfa_offset 8
 1040              		.cfi_offset 3, -8
 1041              		.cfi_offset 14, -4
 308:src/rtos/os.c **** }
 1042              		.loc 1 308 2 view .LVU284
 1043 0002 FFF7FEFF 		bl	OS_TickHandler
 1044              	.LVL45:
 309:src/rtos/os.c **** 
 1045              		.loc 1 309 1 is_stmt 0 view .LVU285
 1046 0006 08BD     		pop	{r3, pc}
 1047              		.cfi_endproc
 1048              	.LFE10:
 1050              		.global	OS_schedEnabled
 1051              		.global	taskIdleStack
 1052              		.global	taskIdleTCB
 1053              		.global	OS_TCBNext
 1054              		.global	OS_TCBCurrent
 1055              		.global	OS_TCBNextIndex
 1056              		.global	OS_TCBCurrentIndex
 1057              		.global	OS_TCBItemsInList
 1058              		.global	OS_TCBList
 1059              		.global	OS_tickCounter
 1060              		.section	.bss.OS_TCBCurrent,"aw",%nobits
 1061              		.align	2
 1062              		.set	.LANCHOR1,. + 0
 1065              	OS_TCBCurrent:
 1066 0000 00000000 		.space	4
 1067              		.section	.bss.OS_TCBCurrentIndex,"aw",%nobits
 1068              		.align	2
 1069              		.set	.LANCHOR6,. + 0
 1072              	OS_TCBCurrentIndex:
 1073 0000 00000000 		.space	4
 1074              		.section	.bss.OS_TCBItemsInList,"aw",%nobits
 1075              		.align	2
 1076              		.set	.LANCHOR3,. + 0
 1079              	OS_TCBItemsInList:
 1080 0000 00000000 		.space	4
 1081              		.section	.bss.OS_TCBList,"aw",%nobits
 1082              		.align	2
ARM GAS  C:\Users\Ivan\AppData\Local\Temp\ccLg2wuB.s 			page 30


 1083              		.set	.LANCHOR2,. + 0
 1086              	OS_TCBList:
 1087 0000 00000000 		.space	256
 1087      00000000 
 1087      00000000 
 1087      00000000 
 1087      00000000 
 1088              		.section	.bss.OS_TCBNext,"aw",%nobits
 1089              		.align	2
 1090              		.set	.LANCHOR5,. + 0
 1093              	OS_TCBNext:
 1094 0000 00000000 		.space	4
 1095              		.section	.bss.OS_TCBNextIndex,"aw",%nobits
 1096              		.align	2
 1097              		.set	.LANCHOR4,. + 0
 1100              	OS_TCBNextIndex:
 1101 0000 00000000 		.space	4
 1102              		.section	.bss.OS_schedEnabled,"aw",%nobits
 1103              		.align	2
 1104              		.set	.LANCHOR0,. + 0
 1107              	OS_schedEnabled:
 1108 0000 00000000 		.space	4
 1109              		.section	.bss.OS_tickCounter,"aw",%nobits
 1110              		.align	2
 1111              		.set	.LANCHOR9,. + 0
 1114              	OS_tickCounter:
 1115 0000 00000000 		.space	4
 1116              		.section	.bss.taskIdleStack,"aw",%nobits
 1117              		.align	2
 1118              		.set	.LANCHOR8,. + 0
 1121              	taskIdleStack:
 1122 0000 00000000 		.space	1024
 1122      00000000 
 1122      00000000 
 1122      00000000 
 1122      00000000 
 1123              		.section	.bss.taskIdleTCB,"aw",%nobits
 1124              		.align	2
 1125              		.set	.LANCHOR7,. + 0
 1128              	taskIdleTCB:
 1129 0000 00000000 		.space	28
 1129      00000000 
 1129      00000000 
 1129      00000000 
 1129      00000000 
 1130              		.text
 1131              	.Letext0:
 1132              		.file 2 "c:\\eclipse\\gcc-arm-none-eabi-10-2020-q4-major\\arm-none-eabi\\include\\machine\\_defaul
 1133              		.file 3 "c:\\eclipse\\gcc-arm-none-eabi-10-2020-q4-major\\arm-none-eabi\\include\\sys\\_stdint.h"
 1134              		.file 4 "src/rtos/os_errors.h"
 1135              		.file 5 "src/rtos/os_forward.h"
 1136              		.file 6 "src/rtos/os.h"
 1137              		.file 7 "src/rtos/mutex_forward.h"
ARM GAS  C:\Users\Ivan\AppData\Local\Temp\ccLg2wuB.s 			page 31

