ARM GAS  C:\Users\Ivan\AppData\Local\Temp\ccGqHI74.s 			page 1


   1              		.cpu cortex-m3
   2              		.eabi_attribute 20, 1
   3              		.eabi_attribute 21, 1
   4              		.eabi_attribute 23, 3
   5              		.eabi_attribute 24, 1
   6              		.eabi_attribute 25, 1
   7              		.eabi_attribute 26, 1
   8              		.eabi_attribute 30, 1
   9              		.eabi_attribute 34, 1
  10              		.eabi_attribute 18, 4
  11              		.file	"stm32f1xx_it.c"
  12              		.text
  13              	.Ltext0:
  14              		.cfi_sections	.debug_frame
  15              		.section	.text.NMI_Handler,"ax",%progbits
  16              		.align	1
  17              		.global	NMI_Handler
  18              		.arch armv7-m
  19              		.syntax unified
  20              		.thumb
  21              		.thumb_func
  22              		.fpu softvfp
  24              	NMI_Handler:
  25              	.LFB0:
  26              		.file 1 "src/stm32f1xx_it.c"
   1:src/stm32f1xx_it.c **** /* USER CODE BEGIN Header */
   2:src/stm32f1xx_it.c **** /**
   3:src/stm32f1xx_it.c ****   ******************************************************************************
   4:src/stm32f1xx_it.c ****   * @file    stm32f1xx_it.c
   5:src/stm32f1xx_it.c ****   * @brief   Interrupt Service Routines.
   6:src/stm32f1xx_it.c ****   ******************************************************************************
   7:src/stm32f1xx_it.c ****   * @attention
   8:src/stm32f1xx_it.c ****   *
   9:src/stm32f1xx_it.c ****   * <h2><center>&copy; Copyright (c) 2021 STMicroelectronics.
  10:src/stm32f1xx_it.c ****   * All rights reserved.</center></h2>
  11:src/stm32f1xx_it.c ****   *
  12:src/stm32f1xx_it.c ****   * This software component is licensed by ST under BSD 3-Clause license,
  13:src/stm32f1xx_it.c ****   * the "License"; You may not use this file except in compliance with the
  14:src/stm32f1xx_it.c ****   * License. You may obtain a copy of the License at:
  15:src/stm32f1xx_it.c ****   *                        opensource.org/licenses/BSD-3-Clause
  16:src/stm32f1xx_it.c ****   *
  17:src/stm32f1xx_it.c ****   ******************************************************************************
  18:src/stm32f1xx_it.c ****   */
  19:src/stm32f1xx_it.c **** /* USER CODE END Header */
  20:src/stm32f1xx_it.c **** 
  21:src/stm32f1xx_it.c **** /* Includes ------------------------------------------------------------------*/
  22:src/stm32f1xx_it.c **** #include "main.h"
  23:src/stm32f1xx_it.c **** #include "stm32f1xx_it.h"
  24:src/stm32f1xx_it.c **** /* Private includes ----------------------------------------------------------*/
  25:src/stm32f1xx_it.c **** /* USER CODE BEGIN Includes */
  26:src/stm32f1xx_it.c **** /* USER CODE END Includes */
  27:src/stm32f1xx_it.c **** 
  28:src/stm32f1xx_it.c **** /* Private typedef -----------------------------------------------------------*/
  29:src/stm32f1xx_it.c **** /* USER CODE BEGIN TD */
  30:src/stm32f1xx_it.c **** 
  31:src/stm32f1xx_it.c **** /* USER CODE END TD */
  32:src/stm32f1xx_it.c **** 
ARM GAS  C:\Users\Ivan\AppData\Local\Temp\ccGqHI74.s 			page 2


  33:src/stm32f1xx_it.c **** /* Private define ------------------------------------------------------------*/
  34:src/stm32f1xx_it.c **** /* USER CODE BEGIN PD */
  35:src/stm32f1xx_it.c ****  
  36:src/stm32f1xx_it.c **** /* USER CODE END PD */
  37:src/stm32f1xx_it.c **** 
  38:src/stm32f1xx_it.c **** /* Private macro -------------------------------------------------------------*/
  39:src/stm32f1xx_it.c **** /* USER CODE BEGIN PM */
  40:src/stm32f1xx_it.c **** 
  41:src/stm32f1xx_it.c **** /* USER CODE END PM */
  42:src/stm32f1xx_it.c **** 
  43:src/stm32f1xx_it.c **** /* Private variables ---------------------------------------------------------*/
  44:src/stm32f1xx_it.c **** /* USER CODE BEGIN PV */
  45:src/stm32f1xx_it.c **** 
  46:src/stm32f1xx_it.c **** /* USER CODE END PV */
  47:src/stm32f1xx_it.c **** 
  48:src/stm32f1xx_it.c **** /* Private function prototypes -----------------------------------------------*/
  49:src/stm32f1xx_it.c **** /* USER CODE BEGIN PFP */
  50:src/stm32f1xx_it.c **** 
  51:src/stm32f1xx_it.c **** /* USER CODE END PFP */
  52:src/stm32f1xx_it.c **** 
  53:src/stm32f1xx_it.c **** /* Private user code ---------------------------------------------------------*/
  54:src/stm32f1xx_it.c **** /* USER CODE BEGIN 0 */
  55:src/stm32f1xx_it.c **** 
  56:src/stm32f1xx_it.c **** /* USER CODE END 0 */
  57:src/stm32f1xx_it.c **** 
  58:src/stm32f1xx_it.c **** /* External variables --------------------------------------------------------*/
  59:src/stm32f1xx_it.c **** 
  60:src/stm32f1xx_it.c **** /* USER CODE BEGIN EV */
  61:src/stm32f1xx_it.c **** 
  62:src/stm32f1xx_it.c **** /* USER CODE END EV */
  63:src/stm32f1xx_it.c **** 
  64:src/stm32f1xx_it.c **** /******************************************************************************/
  65:src/stm32f1xx_it.c **** /*           Cortex-M3 Processor Interruption and Exception Handlers          */ 
  66:src/stm32f1xx_it.c **** /******************************************************************************/
  67:src/stm32f1xx_it.c **** /**
  68:src/stm32f1xx_it.c ****   * @brief This function handles Non maskable interrupt.
  69:src/stm32f1xx_it.c ****   */
  70:src/stm32f1xx_it.c **** void NMI_Handler(void)
  71:src/stm32f1xx_it.c **** {
  27              		.loc 1 71 1 view -0
  28              		.cfi_startproc
  29              		@ args = 0, pretend = 0, frame = 0
  30              		@ frame_needed = 0, uses_anonymous_args = 0
  31              		@ link register save eliminated.
  72:src/stm32f1xx_it.c ****   /* USER CODE BEGIN NonMaskableInt_IRQn 0 */
  73:src/stm32f1xx_it.c **** 
  74:src/stm32f1xx_it.c ****   /* USER CODE END NonMaskableInt_IRQn 0 */
  75:src/stm32f1xx_it.c ****   /* USER CODE BEGIN NonMaskableInt_IRQn 1 */
  76:src/stm32f1xx_it.c **** 
  77:src/stm32f1xx_it.c ****   /* USER CODE END NonMaskableInt_IRQn 1 */
  78:src/stm32f1xx_it.c **** }
  32              		.loc 1 78 1 view .LVU1
  33 0000 7047     		bx	lr
  34              		.cfi_endproc
  35              	.LFE0:
  37              		.section	.text.HardFault_Handler,"ax",%progbits
  38              		.align	1
ARM GAS  C:\Users\Ivan\AppData\Local\Temp\ccGqHI74.s 			page 3


  39              		.global	HardFault_Handler
  40              		.syntax unified
  41              		.thumb
  42              		.thumb_func
  43              		.fpu softvfp
  45              	HardFault_Handler:
  46              	.LFB1:
  79:src/stm32f1xx_it.c **** 
  80:src/stm32f1xx_it.c **** /**
  81:src/stm32f1xx_it.c ****   * @brief This function handles Hard fault interrupt.
  82:src/stm32f1xx_it.c ****   */
  83:src/stm32f1xx_it.c **** void HardFault_Handler(void)
  84:src/stm32f1xx_it.c **** {
  47              		.loc 1 84 1 view -0
  48              		.cfi_startproc
  49              		@ Volatile: function does not return.
  50              		@ args = 0, pretend = 0, frame = 0
  51              		@ frame_needed = 0, uses_anonymous_args = 0
  52              		@ link register save eliminated.
  53              	.L3:
  85:src/stm32f1xx_it.c ****   /* USER CODE BEGIN HardFault_IRQn 0 */
  86:src/stm32f1xx_it.c **** 
  87:src/stm32f1xx_it.c ****   /* USER CODE END HardFault_IRQn 0 */
  88:src/stm32f1xx_it.c ****   while (1)
  54              		.loc 1 88 3 discriminator 1 view .LVU3
  89:src/stm32f1xx_it.c ****   {
  90:src/stm32f1xx_it.c ****     /* USER CODE BEGIN W1_HardFault_IRQn 0 */
  91:src/stm32f1xx_it.c ****     /* USER CODE END W1_HardFault_IRQn 0 */
  92:src/stm32f1xx_it.c ****   }
  55              		.loc 1 92 3 discriminator 1 view .LVU4
  88:src/stm32f1xx_it.c ****   {
  56              		.loc 1 88 9 discriminator 1 view .LVU5
  57 0000 FEE7     		b	.L3
  58              		.cfi_endproc
  59              	.LFE1:
  61              		.section	.text.MemManage_Handler,"ax",%progbits
  62              		.align	1
  63              		.global	MemManage_Handler
  64              		.syntax unified
  65              		.thumb
  66              		.thumb_func
  67              		.fpu softvfp
  69              	MemManage_Handler:
  70              	.LFB2:
  93:src/stm32f1xx_it.c **** }
  94:src/stm32f1xx_it.c **** 
  95:src/stm32f1xx_it.c **** /**
  96:src/stm32f1xx_it.c ****   * @brief This function handles Memory management fault.
  97:src/stm32f1xx_it.c ****   */
  98:src/stm32f1xx_it.c **** void MemManage_Handler(void)
  99:src/stm32f1xx_it.c **** {
  71              		.loc 1 99 1 view -0
  72              		.cfi_startproc
  73              		@ Volatile: function does not return.
  74              		@ args = 0, pretend = 0, frame = 0
  75              		@ frame_needed = 0, uses_anonymous_args = 0
  76              		@ link register save eliminated.
ARM GAS  C:\Users\Ivan\AppData\Local\Temp\ccGqHI74.s 			page 4


  77              	.L5:
 100:src/stm32f1xx_it.c ****   /* USER CODE BEGIN MemoryManagement_IRQn 0 */
 101:src/stm32f1xx_it.c **** 
 102:src/stm32f1xx_it.c ****   /* USER CODE END MemoryManagement_IRQn 0 */
 103:src/stm32f1xx_it.c ****   while (1)
  78              		.loc 1 103 3 discriminator 1 view .LVU7
 104:src/stm32f1xx_it.c ****   {
 105:src/stm32f1xx_it.c ****     /* USER CODE BEGIN W1_MemoryManagement_IRQn 0 */
 106:src/stm32f1xx_it.c ****     /* USER CODE END W1_MemoryManagement_IRQn 0 */
 107:src/stm32f1xx_it.c ****   }
  79              		.loc 1 107 3 discriminator 1 view .LVU8
 103:src/stm32f1xx_it.c ****   {
  80              		.loc 1 103 9 discriminator 1 view .LVU9
  81 0000 FEE7     		b	.L5
  82              		.cfi_endproc
  83              	.LFE2:
  85              		.section	.text.BusFault_Handler,"ax",%progbits
  86              		.align	1
  87              		.global	BusFault_Handler
  88              		.syntax unified
  89              		.thumb
  90              		.thumb_func
  91              		.fpu softvfp
  93              	BusFault_Handler:
  94              	.LFB3:
 108:src/stm32f1xx_it.c **** }
 109:src/stm32f1xx_it.c **** 
 110:src/stm32f1xx_it.c **** /**
 111:src/stm32f1xx_it.c ****   * @brief This function handles Prefetch fault, memory access fault.
 112:src/stm32f1xx_it.c ****   */
 113:src/stm32f1xx_it.c **** void BusFault_Handler(void)
 114:src/stm32f1xx_it.c **** {
  95              		.loc 1 114 1 view -0
  96              		.cfi_startproc
  97              		@ Volatile: function does not return.
  98              		@ args = 0, pretend = 0, frame = 0
  99              		@ frame_needed = 0, uses_anonymous_args = 0
 100              		@ link register save eliminated.
 101              	.L7:
 115:src/stm32f1xx_it.c ****   /* USER CODE BEGIN BusFault_IRQn 0 */
 116:src/stm32f1xx_it.c **** 
 117:src/stm32f1xx_it.c ****   /* USER CODE END BusFault_IRQn 0 */
 118:src/stm32f1xx_it.c ****   while (1)
 102              		.loc 1 118 3 discriminator 1 view .LVU11
 119:src/stm32f1xx_it.c ****   {
 120:src/stm32f1xx_it.c ****     /* USER CODE BEGIN W1_BusFault_IRQn 0 */
 121:src/stm32f1xx_it.c ****     /* USER CODE END W1_BusFault_IRQn 0 */
 122:src/stm32f1xx_it.c ****   }
 103              		.loc 1 122 3 discriminator 1 view .LVU12
 118:src/stm32f1xx_it.c ****   {
 104              		.loc 1 118 9 discriminator 1 view .LVU13
 105 0000 FEE7     		b	.L7
 106              		.cfi_endproc
 107              	.LFE3:
 109              		.section	.text.UsageFault_Handler,"ax",%progbits
 110              		.align	1
 111              		.global	UsageFault_Handler
ARM GAS  C:\Users\Ivan\AppData\Local\Temp\ccGqHI74.s 			page 5


 112              		.syntax unified
 113              		.thumb
 114              		.thumb_func
 115              		.fpu softvfp
 117              	UsageFault_Handler:
 118              	.LFB4:
 123:src/stm32f1xx_it.c **** }
 124:src/stm32f1xx_it.c **** 
 125:src/stm32f1xx_it.c **** /**
 126:src/stm32f1xx_it.c ****   * @brief This function handles Undefined instruction or illegal state.
 127:src/stm32f1xx_it.c ****   */
 128:src/stm32f1xx_it.c **** void UsageFault_Handler(void)
 129:src/stm32f1xx_it.c **** {
 119              		.loc 1 129 1 view -0
 120              		.cfi_startproc
 121              		@ Volatile: function does not return.
 122              		@ args = 0, pretend = 0, frame = 0
 123              		@ frame_needed = 0, uses_anonymous_args = 0
 124              		@ link register save eliminated.
 125              	.L9:
 130:src/stm32f1xx_it.c ****   /* USER CODE BEGIN UsageFault_IRQn 0 */
 131:src/stm32f1xx_it.c **** 
 132:src/stm32f1xx_it.c ****   /* USER CODE END UsageFault_IRQn 0 */
 133:src/stm32f1xx_it.c ****   while (1)
 126              		.loc 1 133 3 discriminator 1 view .LVU15
 134:src/stm32f1xx_it.c ****   {
 135:src/stm32f1xx_it.c ****     /* USER CODE BEGIN W1_UsageFault_IRQn 0 */
 136:src/stm32f1xx_it.c ****     /* USER CODE END W1_UsageFault_IRQn 0 */
 137:src/stm32f1xx_it.c ****   }
 127              		.loc 1 137 3 discriminator 1 view .LVU16
 133:src/stm32f1xx_it.c ****   {
 128              		.loc 1 133 9 discriminator 1 view .LVU17
 129 0000 FEE7     		b	.L9
 130              		.cfi_endproc
 131              	.LFE4:
 133              		.section	.text.SVC_Handler,"ax",%progbits
 134              		.align	1
 135              		.global	SVC_Handler
 136              		.syntax unified
 137              		.thumb
 138              		.thumb_func
 139              		.fpu softvfp
 141              	SVC_Handler:
 142              	.LFB5:
 138:src/stm32f1xx_it.c **** }
 139:src/stm32f1xx_it.c **** 
 140:src/stm32f1xx_it.c **** /**
 141:src/stm32f1xx_it.c ****   * @brief This function handles System service call via SWI instruction.
 142:src/stm32f1xx_it.c ****   */
 143:src/stm32f1xx_it.c **** void SVC_Handler(void)
 144:src/stm32f1xx_it.c **** {
 143              		.loc 1 144 1 view -0
 144              		.cfi_startproc
 145              		@ args = 0, pretend = 0, frame = 0
 146              		@ frame_needed = 0, uses_anonymous_args = 0
 147              		@ link register save eliminated.
 145:src/stm32f1xx_it.c ****   /* USER CODE BEGIN SVCall_IRQn 0 */
ARM GAS  C:\Users\Ivan\AppData\Local\Temp\ccGqHI74.s 			page 6


 146:src/stm32f1xx_it.c **** 
 147:src/stm32f1xx_it.c ****   /* USER CODE END SVCall_IRQn 0 */
 148:src/stm32f1xx_it.c ****   /* USER CODE BEGIN SVCall_IRQn 1 */
 149:src/stm32f1xx_it.c **** 
 150:src/stm32f1xx_it.c ****   /* USER CODE END SVCall_IRQn 1 */
 151:src/stm32f1xx_it.c **** }
 148              		.loc 1 151 1 view .LVU19
 149 0000 7047     		bx	lr
 150              		.cfi_endproc
 151              	.LFE5:
 153              		.section	.text.DebugMon_Handler,"ax",%progbits
 154              		.align	1
 155              		.global	DebugMon_Handler
 156              		.syntax unified
 157              		.thumb
 158              		.thumb_func
 159              		.fpu softvfp
 161              	DebugMon_Handler:
 162              	.LFB6:
 152:src/stm32f1xx_it.c **** 
 153:src/stm32f1xx_it.c **** /**
 154:src/stm32f1xx_it.c ****   * @brief This function handles Debug monitor.
 155:src/stm32f1xx_it.c ****   */
 156:src/stm32f1xx_it.c **** void DebugMon_Handler(void)
 157:src/stm32f1xx_it.c **** {
 163              		.loc 1 157 1 view -0
 164              		.cfi_startproc
 165              		@ args = 0, pretend = 0, frame = 0
 166              		@ frame_needed = 0, uses_anonymous_args = 0
 167              		@ link register save eliminated.
 158:src/stm32f1xx_it.c ****   /* USER CODE BEGIN DebugMonitor_IRQn 0 */
 159:src/stm32f1xx_it.c **** 
 160:src/stm32f1xx_it.c ****   /* USER CODE END DebugMonitor_IRQn 0 */
 161:src/stm32f1xx_it.c ****   /* USER CODE BEGIN DebugMonitor_IRQn 1 */
 162:src/stm32f1xx_it.c **** 
 163:src/stm32f1xx_it.c ****   /* USER CODE END DebugMonitor_IRQn 1 */
 164:src/stm32f1xx_it.c **** }
 168              		.loc 1 164 1 view .LVU21
 169 0000 7047     		bx	lr
 170              		.cfi_endproc
 171              	.LFE6:
 173              		.text
 174              	.Letext0:
ARM GAS  C:\Users\Ivan\AppData\Local\Temp\ccGqHI74.s 			page 7

